

Microchip MPLAB XC8 Assembler V2.41 build 20230208172133 
                                                                                               Tue Oct 10 15:46:11 2023

Microchip MPLAB XC8 C Compiler v2.41 (Free license) build 20230208172133 Og1 
     1                           	processor	16F18076
     2                           	pagewidth 120
     3                           	opt	flic
     4                           	psect	nvCOMMON,global,class=COMMON,space=1,delta=1,noexec
     5                           	psect	cinit,global,class=CODE,merge=1,delta=2
     6                           	psect	cstackCOMMON,global,class=COMMON,space=1,delta=1,noexec
     7                           	psect	maintext,global,class=CODE,merge=1,split=1,delta=2
     8                           	psect	text1,local,class=CODE,merge=1,delta=2
     9                           	psect	text2,local,class=CODE,merge=1,delta=2
    10                           	psect	text3,local,class=CODE,merge=1,delta=2
    11                           	psect	text4,local,class=CODE,merge=1,delta=2
    12                           	psect	text5,local,class=CODE,merge=1,delta=2
    13                           	psect	text6,local,class=CODE,merge=1,delta=2
    14                           	psect	intentry,global,class=CODE,delta=2
    15                           	psect	text8,local,class=CODE,merge=1,delta=2
    16                           	psect	config,global,abs,ovrld,class=CONFIG,space=4,delta=2,noexec
    17                           	dabs	1,0x7E,2
    18     0000                     
    19                           ; Generated 21/06/2023 GMT
    20                           ; 
    21                           ; Copyright © 2023, Microchip Technology Inc. and its subsidiaries ("Microchip")
    22                           ; All rights reserved.
    23                           ; 
    24                           ; This software is developed by Microchip Technology Inc. and its subsidiaries ("Microch
      +                          ip").
    25                           ; 
    26                           ; Redistribution and use in source and binary forms, with or without modification, are
    27                           ; permitted provided that the following conditions are met:
    28                           ; 
    29                           ;     1. Redistributions of source code must retain the above copyright notice, this lis
      +                          t of
    30                           ;        conditions and the following disclaimer.
    31                           ; 
    32                           ;     2. Redistributions in binary form must reproduce the above copyright notice, this 
      +                          list
    33                           ;        of conditions and the following disclaimer in the documentation and/or other
    34                           ;        materials provided with the distribution. Publication is not required when
    35                           ;        this file is used in an embedded application.
    36                           ; 
    37                           ;     3. Microchip's name may not be used to endorse or promote products derived from th
      +                          is
    38                           ;        software without specific prior written permission.
    39                           ; 
    40                           ; THIS SOFTWARE IS PROVIDED BY MICROCHIP "AS IS" AND ANY EXPRESS OR IMPLIED WARRANTIES,
    41                           ; INCLUDING, BUT NOT LIMITED TO, THE IMPLIED WARRANTIES OF MERCHANTABILITY AND FITNESS F
      +                          OR
    42                           ; PURPOSE ARE DISCLAIMED.  IN NO EVENT SHALL MICROCHIP BE LIABLE FOR ANY DIRECT, INDIREC
      +                          T,
    43                           ; INCIDENTAL, SPECIAL, EXEMPLARY, OR CONSEQUENTIAL DAMAGES (INCLUDING BUT NOT LIMITED TO
    44                           ; PROCUREMENT OF SUBSTITUTE GOODS OR SERVICES; LOSS OF USE, DATA OR PROFITS; OR BUSINESS
    45                           ; INTERRUPTION) HOWSOEVER CAUSED AND ON ANY THEORY OF LIABILITY, WHETHER IN CONTRACT, ST
      +                          RICT
    46                           ; LIABILITY, OR TORT (INCLUDING NEGLIGENCE OR OTHERWISE) ARISING IN ANY WAY OUT OF THE U
      +                          SE OF
    47                           ; THIS SOFTWARE, EVEN IF ADVISED OF THE POSSIBILITY OF SUCH DAMAGE.
    48                           ; 
    49                           ; 
    50                           ; Code-generator required, PIC16F18076 Definitions
    51                           ; 
    52                           ; SFR Addresses
    53     0000                     	;# 
    54     0001                     	;# 
    55     0002                     	;# 
    56     0003                     	;# 
    57     0004                     	;# 
    58     0005                     	;# 
    59     0006                     	;# 
    60     0007                     	;# 
    61     0008                     	;# 
    62     0009                     	;# 
    63     000A                     	;# 
    64     000B                     	;# 
    65     000C                     	;# 
    66     000D                     	;# 
    67     000E                     	;# 
    68     000F                     	;# 
    69     0010                     	;# 
    70     0012                     	;# 
    71     0013                     	;# 
    72     0014                     	;# 
    73     0015                     	;# 
    74     0016                     	;# 
    75     0018                     	;# 
    76     0019                     	;# 
    77     001A                     	;# 
    78     001B                     	;# 
    79     001C                     	;# 
    80     008C                     	;# 
    81     008D                     	;# 
    82     008E                     	;# 
    83     008F                     	;# 
    84     0090                     	;# 
    85     0096                     	;# 
    86     0097                     	;# 
    87     0098                     	;# 
    88     0099                     	;# 
    89     009A                     	;# 
    90     018C                     	;# 
    91     018D                     	;# 
    92     018E                     	;# 
    93     018F                     	;# 
    94     019C                     	;# 
    95     019C                     	;# 
    96     019D                     	;# 
    97     019D                     	;# 
    98     019E                     	;# 
    99     019F                     	;# 
   100     020E                     	;# 
   101     020F                     	;# 
   102     0210                     	;# 
   103     0211                     	;# 
   104     0212                     	;# 
   105     0213                     	;# 
   106     0214                     	;# 
   107     028C                     	;# 
   108     028C                     	;# 
   109     028D                     	;# 
   110     028E                     	;# 
   111     028F                     	;# 
   112     028F                     	;# 
   113     0290                     	;# 
   114     0290                     	;# 
   115     0291                     	;# 
   116     0291                     	;# 
   117     0292                     	;# 
   118     0292                     	;# 
   119     0293                     	;# 
   120     0294                     	;# 
   121     0295                     	;# 
   122     0295                     	;# 
   123     0296                     	;# 
   124     0296                     	;# 
   125     0297                     	;# 
   126     0297                     	;# 
   127     030C                     	;# 
   128     030C                     	;# 
   129     030D                     	;# 
   130     030D                     	;# 
   131     030E                     	;# 
   132     030F                     	;# 
   133     0310                     	;# 
   134     0310                     	;# 
   135     0311                     	;# 
   136     0312                     	;# 
   137     0312                     	;# 
   138     0313                     	;# 
   139     0313                     	;# 
   140     0314                     	;# 
   141     0315                     	;# 
   142     0316                     	;# 
   143     0316                     	;# 
   144     0317                     	;# 
   145     0318                     	;# 
   146     0318                     	;# 
   147     0319                     	;# 
   148     0319                     	;# 
   149     031A                     	;# 
   150     031B                     	;# 
   151     031C                     	;# 
   152     031C                     	;# 
   153     031D                     	;# 
   154     038C                     	;# 
   155     038C                     	;# 
   156     038D                     	;# 
   157     038E                     	;# 
   158     038F                     	;# 
   159     0390                     	;# 
   160     0390                     	;# 
   161     0391                     	;# 
   162     0392                     	;# 
   163     0393                     	;# 
   164     039F                     	;# 
   165     040C                     	;# 
   166     040C                     	;# 
   167     040D                     	;# 
   168     040E                     	;# 
   169     040F                     	;# 
   170     040F                     	;# 
   171     0410                     	;# 
   172     0411                     	;# 
   173     0412                     	;# 
   174     0412                     	;# 
   175     0413                     	;# 
   176     0414                     	;# 
   177     041F                     	;# 
   178     048C                     	;# 
   179     048C                     	;# 
   180     048D                     	;# 
   181     048E                     	;# 
   182     048F                     	;# 
   183     048F                     	;# 
   184     0490                     	;# 
   185     0491                     	;# 
   186     0492                     	;# 
   187     0493                     	;# 
   188     050C                     	;# 
   189     050C                     	;# 
   190     050D                     	;# 
   191     050D                     	;# 
   192     050E                     	;# 
   193     050F                     	;# 
   194     0510                     	;# 
   195     0511                     	;# 
   196     0512                     	;# 
   197     0513                     	;# 
   198     0514                     	;# 
   199     058C                     	;# 
   200     058D                     	;# 
   201     058E                     	;# 
   202     058F                     	;# 
   203     0590                     	;# 
   204     0591                     	;# 
   205     0592                     	;# 
   206     0593                     	;# 
   207     0594                     	;# 
   208     0595                     	;# 
   209     0596                     	;# 
   210     0597                     	;# 
   211     060C                     	;# 
   212     060D                     	;# 
   213     060E                     	;# 
   214     060E                     	;# 
   215     060F                     	;# 
   216     0610                     	;# 
   217     0611                     	;# 
   218     0612                     	;# 
   219     0616                     	;# 
   220     0617                     	;# 
   221     0618                     	;# 
   222     0618                     	;# 
   223     0619                     	;# 
   224     061A                     	;# 
   225     061B                     	;# 
   226     061C                     	;# 
   227     068C                     	;# 
   228     068D                     	;# 
   229     068E                     	;# 
   230     068F                     	;# 
   231     0690                     	;# 
   232     0691                     	;# 
   233     0692                     	;# 
   234     0696                     	;# 
   235     0697                     	;# 
   236     0698                     	;# 
   237     0699                     	;# 
   238     069A                     	;# 
   239     069B                     	;# 
   240     069C                     	;# 
   241     100C                     	;# 
   242     100D                     	;# 
   243     101F                     	;# 
   244     108C                     	;# 
   245     108D                     	;# 
   246     108E                     	;# 
   247     108F                     	;# 
   248     109F                     	;# 
   249     109F                     	;# 
   250     110C                     	;# 
   251     110D                     	;# 
   252     1C8C                     	;# 
   253     1C8C                     	;# 
   254     1C8D                     	;# 
   255     1C8E                     	;# 
   256     1C8E                     	;# 
   257     1C8F                     	;# 
   258     1C90                     	;# 
   259     1C91                     	;# 
   260     1D0C                     	;# 
   261     1D0C                     	;# 
   262     1D0D                     	;# 
   263     1D0E                     	;# 
   264     1D0E                     	;# 
   265     1D0F                     	;# 
   266     1D10                     	;# 
   267     1D10                     	;# 
   268     1D11                     	;# 
   269     1D12                     	;# 
   270     1D12                     	;# 
   271     1D13                     	;# 
   272     1D14                     	;# 
   273     1D14                     	;# 
   274     1D15                     	;# 
   275     1D16                     	;# 
   276     1D16                     	;# 
   277     1D17                     	;# 
   278     1D18                     	;# 
   279     1D19                     	;# 
   280     1D1A                     	;# 
   281     1D1B                     	;# 
   282     1D1B                     	;# 
   283     1D1C                     	;# 
   284     1D1D                     	;# 
   285     1D1D                     	;# 
   286     1D1E                     	;# 
   287     1D1F                     	;# 
   288     1D21                     	;# 
   289     1D21                     	;# 
   290     1D22                     	;# 
   291     1D23                     	;# 
   292     1D24                     	;# 
   293     1D24                     	;# 
   294     1D25                     	;# 
   295     1D26                     	;# 
   296     1D27                     	;# 
   297     1D28                     	;# 
   298     1D29                     	;# 
   299     1D2A                     	;# 
   300     1D2B                     	;# 
   301     1D2C                     	;# 
   302     1D2D                     	;# 
   303     1D2E                     	;# 
   304     1D2F                     	;# 
   305     1D30                     	;# 
   306     1D31                     	;# 
   307     1D32                     	;# 
   308     1D8C                     	;# 
   309     1D8D                     	;# 
   310     1D8E                     	;# 
   311     1D8F                     	;# 
   312     1D90                     	;# 
   313     1D91                     	;# 
   314     1D92                     	;# 
   315     1D93                     	;# 
   316     1D94                     	;# 
   317     1D95                     	;# 
   318     1D96                     	;# 
   319     1D97                     	;# 
   320     1D98                     	;# 
   321     1D99                     	;# 
   322     1D9A                     	;# 
   323     1D9B                     	;# 
   324     1D9C                     	;# 
   325     1D9D                     	;# 
   326     1D9E                     	;# 
   327     1D9F                     	;# 
   328     1DA0                     	;# 
   329     1DA1                     	;# 
   330     1DA2                     	;# 
   331     1DA3                     	;# 
   332     1DA4                     	;# 
   333     1DA5                     	;# 
   334     1DA6                     	;# 
   335     1DA7                     	;# 
   336     1DA8                     	;# 
   337     1DA9                     	;# 
   338     1DAA                     	;# 
   339     1DAB                     	;# 
   340     1DAC                     	;# 
   341     1DAD                     	;# 
   342     1DAE                     	;# 
   343     1E0C                     	;# 
   344     1E0D                     	;# 
   345     1E0E                     	;# 
   346     1E0F                     	;# 
   347     1E10                     	;# 
   348     1E11                     	;# 
   349     1E12                     	;# 
   350     1E19                     	;# 
   351     1E1A                     	;# 
   352     1E1B                     	;# 
   353     1E1E                     	;# 
   354     1E1F                     	;# 
   355     1E39                     	;# 
   356     1E3D                     	;# 
   357     1E3E                     	;# 
   358     1E3F                     	;# 
   359     1E40                     	;# 
   360     1E41                     	;# 
   361     1E41                     	;# 
   362     1E42                     	;# 
   363     1E42                     	;# 
   364     1E43                     	;# 
   365     1E43                     	;# 
   366     1E44                     	;# 
   367     1E44                     	;# 
   368     1E47                     	;# 
   369     1E48                     	;# 
   370     1E49                     	;# 
   371     1E4A                     	;# 
   372     1E4B                     	;# 
   373     1E4C                     	;# 
   374     1E50                     	;# 
   375     1E8C                     	;# 
   376     1E8D                     	;# 
   377     1E8E                     	;# 
   378     1E8F                     	;# 
   379     1E90                     	;# 
   380     1E91                     	;# 
   381     1E92                     	;# 
   382     1E93                     	;# 
   383     1E96                     	;# 
   384     1E97                     	;# 
   385     1E98                     	;# 
   386     1E99                     	;# 
   387     1E9A                     	;# 
   388     1E9B                     	;# 
   389     1E9C                     	;# 
   390     1E9D                     	;# 
   391     1EA0                     	;# 
   392     1EA1                     	;# 
   393     1EA2                     	;# 
   394     1EA3                     	;# 
   395     1EA4                     	;# 
   396     1EA5                     	;# 
   397     1EA6                     	;# 
   398     1EA7                     	;# 
   399     1EAA                     	;# 
   400     1EAB                     	;# 
   401     1EAC                     	;# 
   402     1EAD                     	;# 
   403     1EAE                     	;# 
   404     1EB4                     	;# 
   405     1EB5                     	;# 
   406     1EB6                     	;# 
   407     1EB7                     	;# 
   408     1EB8                     	;# 
   409     1EB9                     	;# 
   410     1EBA                     	;# 
   411     1EBB                     	;# 
   412     1EE3                     	;# 
   413     1EE4                     	;# 
   414     1EEB                     	;# 
   415     1EEC                     	;# 
   416     1EEE                     	;# 
   417     1EEF                     	;# 
   418     1F0C                     	;# 
   419     1F0D                     	;# 
   420     1F0E                     	;# 
   421     1FE4                     	;# 
   422     1FE5                     	;# 
   423     1FE6                     	;# 
   424     1FE7                     	;# 
   425     1FE8                     	;# 
   426     1FE8                     	;# 
   427     1FE9                     	;# 
   428     1FEA                     	;# 
   429     1FEA                     	;# 
   430     1FEB                     	;# 
   431     1FED                     	;# 
   432     1FEE                     	;# 
   433     1FEF                     	;# 
   434     0000                     	;# 
   435     0001                     	;# 
   436     0002                     	;# 
   437     0003                     	;# 
   438     0004                     	;# 
   439     0005                     	;# 
   440     0006                     	;# 
   441     0007                     	;# 
   442     0008                     	;# 
   443     0009                     	;# 
   444     000A                     	;# 
   445     000B                     	;# 
   446     000C                     	;# 
   447     000D                     	;# 
   448     000E                     	;# 
   449     000F                     	;# 
   450     0010                     	;# 
   451     0012                     	;# 
   452     0013                     	;# 
   453     0014                     	;# 
   454     0015                     	;# 
   455     0016                     	;# 
   456     0018                     	;# 
   457     0019                     	;# 
   458     001A                     	;# 
   459     001B                     	;# 
   460     001C                     	;# 
   461     008C                     	;# 
   462     008D                     	;# 
   463     008E                     	;# 
   464     008F                     	;# 
   465     0090                     	;# 
   466     0096                     	;# 
   467     0097                     	;# 
   468     0098                     	;# 
   469     0099                     	;# 
   470     009A                     	;# 
   471     018C                     	;# 
   472     018D                     	;# 
   473     018E                     	;# 
   474     018F                     	;# 
   475     019C                     	;# 
   476     019C                     	;# 
   477     019D                     	;# 
   478     019D                     	;# 
   479     019E                     	;# 
   480     019F                     	;# 
   481     020E                     	;# 
   482     020F                     	;# 
   483     0210                     	;# 
   484     0211                     	;# 
   485     0212                     	;# 
   486     0213                     	;# 
   487     0214                     	;# 
   488     028C                     	;# 
   489     028C                     	;# 
   490     028D                     	;# 
   491     028E                     	;# 
   492     028F                     	;# 
   493     028F                     	;# 
   494     0290                     	;# 
   495     0290                     	;# 
   496     0291                     	;# 
   497     0291                     	;# 
   498     0292                     	;# 
   499     0292                     	;# 
   500     0293                     	;# 
   501     0294                     	;# 
   502     0295                     	;# 
   503     0295                     	;# 
   504     0296                     	;# 
   505     0296                     	;# 
   506     0297                     	;# 
   507     0297                     	;# 
   508     030C                     	;# 
   509     030C                     	;# 
   510     030D                     	;# 
   511     030D                     	;# 
   512     030E                     	;# 
   513     030F                     	;# 
   514     0310                     	;# 
   515     0310                     	;# 
   516     0311                     	;# 
   517     0312                     	;# 
   518     0312                     	;# 
   519     0313                     	;# 
   520     0313                     	;# 
   521     0314                     	;# 
   522     0315                     	;# 
   523     0316                     	;# 
   524     0316                     	;# 
   525     0317                     	;# 
   526     0318                     	;# 
   527     0318                     	;# 
   528     0319                     	;# 
   529     0319                     	;# 
   530     031A                     	;# 
   531     031B                     	;# 
   532     031C                     	;# 
   533     031C                     	;# 
   534     031D                     	;# 
   535     038C                     	;# 
   536     038C                     	;# 
   537     038D                     	;# 
   538     038E                     	;# 
   539     038F                     	;# 
   540     0390                     	;# 
   541     0390                     	;# 
   542     0391                     	;# 
   543     0392                     	;# 
   544     0393                     	;# 
   545     039F                     	;# 
   546     040C                     	;# 
   547     040C                     	;# 
   548     040D                     	;# 
   549     040E                     	;# 
   550     040F                     	;# 
   551     040F                     	;# 
   552     0410                     	;# 
   553     0411                     	;# 
   554     0412                     	;# 
   555     0412                     	;# 
   556     0413                     	;# 
   557     0414                     	;# 
   558     041F                     	;# 
   559     048C                     	;# 
   560     048C                     	;# 
   561     048D                     	;# 
   562     048E                     	;# 
   563     048F                     	;# 
   564     048F                     	;# 
   565     0490                     	;# 
   566     0491                     	;# 
   567     0492                     	;# 
   568     0493                     	;# 
   569     050C                     	;# 
   570     050C                     	;# 
   571     050D                     	;# 
   572     050D                     	;# 
   573     050E                     	;# 
   574     050F                     	;# 
   575     0510                     	;# 
   576     0511                     	;# 
   577     0512                     	;# 
   578     0513                     	;# 
   579     0514                     	;# 
   580     058C                     	;# 
   581     058D                     	;# 
   582     058E                     	;# 
   583     058F                     	;# 
   584     0590                     	;# 
   585     0591                     	;# 
   586     0592                     	;# 
   587     0593                     	;# 
   588     0594                     	;# 
   589     0595                     	;# 
   590     0596                     	;# 
   591     0597                     	;# 
   592     060C                     	;# 
   593     060D                     	;# 
   594     060E                     	;# 
   595     060E                     	;# 
   596     060F                     	;# 
   597     0610                     	;# 
   598     0611                     	;# 
   599     0612                     	;# 
   600     0616                     	;# 
   601     0617                     	;# 
   602     0618                     	;# 
   603     0618                     	;# 
   604     0619                     	;# 
   605     061A                     	;# 
   606     061B                     	;# 
   607     061C                     	;# 
   608     068C                     	;# 
   609     068D                     	;# 
   610     068E                     	;# 
   611     068F                     	;# 
   612     0690                     	;# 
   613     0691                     	;# 
   614     0692                     	;# 
   615     0696                     	;# 
   616     0697                     	;# 
   617     0698                     	;# 
   618     0699                     	;# 
   619     069A                     	;# 
   620     069B                     	;# 
   621     069C                     	;# 
   622     100C                     	;# 
   623     100D                     	;# 
   624     101F                     	;# 
   625     108C                     	;# 
   626     108D                     	;# 
   627     108E                     	;# 
   628     108F                     	;# 
   629     109F                     	;# 
   630     109F                     	;# 
   631     110C                     	;# 
   632     110D                     	;# 
   633     1C8C                     	;# 
   634     1C8C                     	;# 
   635     1C8D                     	;# 
   636     1C8E                     	;# 
   637     1C8E                     	;# 
   638     1C8F                     	;# 
   639     1C90                     	;# 
   640     1C91                     	;# 
   641     1D0C                     	;# 
   642     1D0C                     	;# 
   643     1D0D                     	;# 
   644     1D0E                     	;# 
   645     1D0E                     	;# 
   646     1D0F                     	;# 
   647     1D10                     	;# 
   648     1D10                     	;# 
   649     1D11                     	;# 
   650     1D12                     	;# 
   651     1D12                     	;# 
   652     1D13                     	;# 
   653     1D14                     	;# 
   654     1D14                     	;# 
   655     1D15                     	;# 
   656     1D16                     	;# 
   657     1D16                     	;# 
   658     1D17                     	;# 
   659     1D18                     	;# 
   660     1D19                     	;# 
   661     1D1A                     	;# 
   662     1D1B                     	;# 
   663     1D1B                     	;# 
   664     1D1C                     	;# 
   665     1D1D                     	;# 
   666     1D1D                     	;# 
   667     1D1E                     	;# 
   668     1D1F                     	;# 
   669     1D21                     	;# 
   670     1D21                     	;# 
   671     1D22                     	;# 
   672     1D23                     	;# 
   673     1D24                     	;# 
   674     1D24                     	;# 
   675     1D25                     	;# 
   676     1D26                     	;# 
   677     1D27                     	;# 
   678     1D28                     	;# 
   679     1D29                     	;# 
   680     1D2A                     	;# 
   681     1D2B                     	;# 
   682     1D2C                     	;# 
   683     1D2D                     	;# 
   684     1D2E                     	;# 
   685     1D2F                     	;# 
   686     1D30                     	;# 
   687     1D31                     	;# 
   688     1D32                     	;# 
   689     1D8C                     	;# 
   690     1D8D                     	;# 
   691     1D8E                     	;# 
   692     1D8F                     	;# 
   693     1D90                     	;# 
   694     1D91                     	;# 
   695     1D92                     	;# 
   696     1D93                     	;# 
   697     1D94                     	;# 
   698     1D95                     	;# 
   699     1D96                     	;# 
   700     1D97                     	;# 
   701     1D98                     	;# 
   702     1D99                     	;# 
   703     1D9A                     	;# 
   704     1D9B                     	;# 
   705     1D9C                     	;# 
   706     1D9D                     	;# 
   707     1D9E                     	;# 
   708     1D9F                     	;# 
   709     1DA0                     	;# 
   710     1DA1                     	;# 
   711     1DA2                     	;# 
   712     1DA3                     	;# 
   713     1DA4                     	;# 
   714     1DA5                     	;# 
   715     1DA6                     	;# 
   716     1DA7                     	;# 
   717     1DA8                     	;# 
   718     1DA9                     	;# 
   719     1DAA                     	;# 
   720     1DAB                     	;# 
   721     1DAC                     	;# 
   722     1DAD                     	;# 
   723     1DAE                     	;# 
   724     1E0C                     	;# 
   725     1E0D                     	;# 
   726     1E0E                     	;# 
   727     1E0F                     	;# 
   728     1E10                     	;# 
   729     1E11                     	;# 
   730     1E12                     	;# 
   731     1E19                     	;# 
   732     1E1A                     	;# 
   733     1E1B                     	;# 
   734     1E1E                     	;# 
   735     1E1F                     	;# 
   736     1E39                     	;# 
   737     1E3D                     	;# 
   738     1E3E                     	;# 
   739     1E3F                     	;# 
   740     1E40                     	;# 
   741     1E41                     	;# 
   742     1E41                     	;# 
   743     1E42                     	;# 
   744     1E42                     	;# 
   745     1E43                     	;# 
   746     1E43                     	;# 
   747     1E44                     	;# 
   748     1E44                     	;# 
   749     1E47                     	;# 
   750     1E48                     	;# 
   751     1E49                     	;# 
   752     1E4A                     	;# 
   753     1E4B                     	;# 
   754     1E4C                     	;# 
   755     1E50                     	;# 
   756     1E8C                     	;# 
   757     1E8D                     	;# 
   758     1E8E                     	;# 
   759     1E8F                     	;# 
   760     1E90                     	;# 
   761     1E91                     	;# 
   762     1E92                     	;# 
   763     1E93                     	;# 
   764     1E96                     	;# 
   765     1E97                     	;# 
   766     1E98                     	;# 
   767     1E99                     	;# 
   768     1E9A                     	;# 
   769     1E9B                     	;# 
   770     1E9C                     	;# 
   771     1E9D                     	;# 
   772     1EA0                     	;# 
   773     1EA1                     	;# 
   774     1EA2                     	;# 
   775     1EA3                     	;# 
   776     1EA4                     	;# 
   777     1EA5                     	;# 
   778     1EA6                     	;# 
   779     1EA7                     	;# 
   780     1EAA                     	;# 
   781     1EAB                     	;# 
   782     1EAC                     	;# 
   783     1EAD                     	;# 
   784     1EAE                     	;# 
   785     1EB4                     	;# 
   786     1EB5                     	;# 
   787     1EB6                     	;# 
   788     1EB7                     	;# 
   789     1EB8                     	;# 
   790     1EB9                     	;# 
   791     1EBA                     	;# 
   792     1EBB                     	;# 
   793     1EE3                     	;# 
   794     1EE4                     	;# 
   795     1EEB                     	;# 
   796     1EEC                     	;# 
   797     1EEE                     	;# 
   798     1EEF                     	;# 
   799     1F0C                     	;# 
   800     1F0D                     	;# 
   801     1F0E                     	;# 
   802     1FE4                     	;# 
   803     1FE5                     	;# 
   804     1FE6                     	;# 
   805     1FE7                     	;# 
   806     1FE8                     	;# 
   807     1FE8                     	;# 
   808     1FE9                     	;# 
   809     1FEA                     	;# 
   810     1FEA                     	;# 
   811     1FEB                     	;# 
   812     1FED                     	;# 
   813     1FEE                     	;# 
   814     1FEF                     	;# 
   815     0000                     	;# 
   816     0001                     	;# 
   817     0002                     	;# 
   818     0003                     	;# 
   819     0004                     	;# 
   820     0005                     	;# 
   821     0006                     	;# 
   822     0007                     	;# 
   823     0008                     	;# 
   824     0009                     	;# 
   825     000A                     	;# 
   826     000B                     	;# 
   827     000C                     	;# 
   828     000D                     	;# 
   829     000E                     	;# 
   830     000F                     	;# 
   831     0010                     	;# 
   832     0012                     	;# 
   833     0013                     	;# 
   834     0014                     	;# 
   835     0015                     	;# 
   836     0016                     	;# 
   837     0018                     	;# 
   838     0019                     	;# 
   839     001A                     	;# 
   840     001B                     	;# 
   841     001C                     	;# 
   842     008C                     	;# 
   843     008D                     	;# 
   844     008E                     	;# 
   845     008F                     	;# 
   846     0090                     	;# 
   847     0096                     	;# 
   848     0097                     	;# 
   849     0098                     	;# 
   850     0099                     	;# 
   851     009A                     	;# 
   852     018C                     	;# 
   853     018D                     	;# 
   854     018E                     	;# 
   855     018F                     	;# 
   856     019C                     	;# 
   857     019C                     	;# 
   858     019D                     	;# 
   859     019D                     	;# 
   860     019E                     	;# 
   861     019F                     	;# 
   862     020E                     	;# 
   863     020F                     	;# 
   864     0210                     	;# 
   865     0211                     	;# 
   866     0212                     	;# 
   867     0213                     	;# 
   868     0214                     	;# 
   869     028C                     	;# 
   870     028C                     	;# 
   871     028D                     	;# 
   872     028E                     	;# 
   873     028F                     	;# 
   874     028F                     	;# 
   875     0290                     	;# 
   876     0290                     	;# 
   877     0291                     	;# 
   878     0291                     	;# 
   879     0292                     	;# 
   880     0292                     	;# 
   881     0293                     	;# 
   882     0294                     	;# 
   883     0295                     	;# 
   884     0295                     	;# 
   885     0296                     	;# 
   886     0296                     	;# 
   887     0297                     	;# 
   888     0297                     	;# 
   889     030C                     	;# 
   890     030C                     	;# 
   891     030D                     	;# 
   892     030D                     	;# 
   893     030E                     	;# 
   894     030F                     	;# 
   895     0310                     	;# 
   896     0310                     	;# 
   897     0311                     	;# 
   898     0312                     	;# 
   899     0312                     	;# 
   900     0313                     	;# 
   901     0313                     	;# 
   902     0314                     	;# 
   903     0315                     	;# 
   904     0316                     	;# 
   905     0316                     	;# 
   906     0317                     	;# 
   907     0318                     	;# 
   908     0318                     	;# 
   909     0319                     	;# 
   910     0319                     	;# 
   911     031A                     	;# 
   912     031B                     	;# 
   913     031C                     	;# 
   914     031C                     	;# 
   915     031D                     	;# 
   916     038C                     	;# 
   917     038C                     	;# 
   918     038D                     	;# 
   919     038E                     	;# 
   920     038F                     	;# 
   921     0390                     	;# 
   922     0390                     	;# 
   923     0391                     	;# 
   924     0392                     	;# 
   925     0393                     	;# 
   926     039F                     	;# 
   927     040C                     	;# 
   928     040C                     	;# 
   929     040D                     	;# 
   930     040E                     	;# 
   931     040F                     	;# 
   932     040F                     	;# 
   933     0410                     	;# 
   934     0411                     	;# 
   935     0412                     	;# 
   936     0412                     	;# 
   937     0413                     	;# 
   938     0414                     	;# 
   939     041F                     	;# 
   940     048C                     	;# 
   941     048C                     	;# 
   942     048D                     	;# 
   943     048E                     	;# 
   944     048F                     	;# 
   945     048F                     	;# 
   946     0490                     	;# 
   947     0491                     	;# 
   948     0492                     	;# 
   949     0493                     	;# 
   950     050C                     	;# 
   951     050C                     	;# 
   952     050D                     	;# 
   953     050D                     	;# 
   954     050E                     	;# 
   955     050F                     	;# 
   956     0510                     	;# 
   957     0511                     	;# 
   958     0512                     	;# 
   959     0513                     	;# 
   960     0514                     	;# 
   961     058C                     	;# 
   962     058D                     	;# 
   963     058E                     	;# 
   964     058F                     	;# 
   965     0590                     	;# 
   966     0591                     	;# 
   967     0592                     	;# 
   968     0593                     	;# 
   969     0594                     	;# 
   970     0595                     	;# 
   971     0596                     	;# 
   972     0597                     	;# 
   973     060C                     	;# 
   974     060D                     	;# 
   975     060E                     	;# 
   976     060E                     	;# 
   977     060F                     	;# 
   978     0610                     	;# 
   979     0611                     	;# 
   980     0612                     	;# 
   981     0616                     	;# 
   982     0617                     	;# 
   983     0618                     	;# 
   984     0618                     	;# 
   985     0619                     	;# 
   986     061A                     	;# 
   987     061B                     	;# 
   988     061C                     	;# 
   989     068C                     	;# 
   990     068D                     	;# 
   991     068E                     	;# 
   992     068F                     	;# 
   993     0690                     	;# 
   994     0691                     	;# 
   995     0692                     	;# 
   996     0696                     	;# 
   997     0697                     	;# 
   998     0698                     	;# 
   999     0699                     	;# 
  1000     069A                     	;# 
  1001     069B                     	;# 
  1002     069C                     	;# 
  1003     100C                     	;# 
  1004     100D                     	;# 
  1005     101F                     	;# 
  1006     108C                     	;# 
  1007     108D                     	;# 
  1008     108E                     	;# 
  1009     108F                     	;# 
  1010     109F                     	;# 
  1011     109F                     	;# 
  1012     110C                     	;# 
  1013     110D                     	;# 
  1014     1C8C                     	;# 
  1015     1C8C                     	;# 
  1016     1C8D                     	;# 
  1017     1C8E                     	;# 
  1018     1C8E                     	;# 
  1019     1C8F                     	;# 
  1020     1C90                     	;# 
  1021     1C91                     	;# 
  1022     1D0C                     	;# 
  1023     1D0C                     	;# 
  1024     1D0D                     	;# 
  1025     1D0E                     	;# 
  1026     1D0E                     	;# 
  1027     1D0F                     	;# 
  1028     1D10                     	;# 
  1029     1D10                     	;# 
  1030     1D11                     	;# 
  1031     1D12                     	;# 
  1032     1D12                     	;# 
  1033     1D13                     	;# 
  1034     1D14                     	;# 
  1035     1D14                     	;# 
  1036     1D15                     	;# 
  1037     1D16                     	;# 
  1038     1D16                     	;# 
  1039     1D17                     	;# 
  1040     1D18                     	;# 
  1041     1D19                     	;# 
  1042     1D1A                     	;# 
  1043     1D1B                     	;# 
  1044     1D1B                     	;# 
  1045     1D1C                     	;# 
  1046     1D1D                     	;# 
  1047     1D1D                     	;# 
  1048     1D1E                     	;# 
  1049     1D1F                     	;# 
  1050     1D21                     	;# 
  1051     1D21                     	;# 
  1052     1D22                     	;# 
  1053     1D23                     	;# 
  1054     1D24                     	;# 
  1055     1D24                     	;# 
  1056     1D25                     	;# 
  1057     1D26                     	;# 
  1058     1D27                     	;# 
  1059     1D28                     	;# 
  1060     1D29                     	;# 
  1061     1D2A                     	;# 
  1062     1D2B                     	;# 
  1063     1D2C                     	;# 
  1064     1D2D                     	;# 
  1065     1D2E                     	;# 
  1066     1D2F                     	;# 
  1067     1D30                     	;# 
  1068     1D31                     	;# 
  1069     1D32                     	;# 
  1070     1D8C                     	;# 
  1071     1D8D                     	;# 
  1072     1D8E                     	;# 
  1073     1D8F                     	;# 
  1074     1D90                     	;# 
  1075     1D91                     	;# 
  1076     1D92                     	;# 
  1077     1D93                     	;# 
  1078     1D94                     	;# 
  1079     1D95                     	;# 
  1080     1D96                     	;# 
  1081     1D97                     	;# 
  1082     1D98                     	;# 
  1083     1D99                     	;# 
  1084     1D9A                     	;# 
  1085     1D9B                     	;# 
  1086     1D9C                     	;# 
  1087     1D9D                     	;# 
  1088     1D9E                     	;# 
  1089     1D9F                     	;# 
  1090     1DA0                     	;# 
  1091     1DA1                     	;# 
  1092     1DA2                     	;# 
  1093     1DA3                     	;# 
  1094     1DA4                     	;# 
  1095     1DA5                     	;# 
  1096     1DA6                     	;# 
  1097     1DA7                     	;# 
  1098     1DA8                     	;# 
  1099     1DA9                     	;# 
  1100     1DAA                     	;# 
  1101     1DAB                     	;# 
  1102     1DAC                     	;# 
  1103     1DAD                     	;# 
  1104     1DAE                     	;# 
  1105     1E0C                     	;# 
  1106     1E0D                     	;# 
  1107     1E0E                     	;# 
  1108     1E0F                     	;# 
  1109     1E10                     	;# 
  1110     1E11                     	;# 
  1111     1E12                     	;# 
  1112     1E19                     	;# 
  1113     1E1A                     	;# 
  1114     1E1B                     	;# 
  1115     1E1E                     	;# 
  1116     1E1F                     	;# 
  1117     1E39                     	;# 
  1118     1E3D                     	;# 
  1119     1E3E                     	;# 
  1120     1E3F                     	;# 
  1121     1E40                     	;# 
  1122     1E41                     	;# 
  1123     1E41                     	;# 
  1124     1E42                     	;# 
  1125     1E42                     	;# 
  1126     1E43                     	;# 
  1127     1E43                     	;# 
  1128     1E44                     	;# 
  1129     1E44                     	;# 
  1130     1E47                     	;# 
  1131     1E48                     	;# 
  1132     1E49                     	;# 
  1133     1E4A                     	;# 
  1134     1E4B                     	;# 
  1135     1E4C                     	;# 
  1136     1E50                     	;# 
  1137     1E8C                     	;# 
  1138     1E8D                     	;# 
  1139     1E8E                     	;# 
  1140     1E8F                     	;# 
  1141     1E90                     	;# 
  1142     1E91                     	;# 
  1143     1E92                     	;# 
  1144     1E93                     	;# 
  1145     1E96                     	;# 
  1146     1E97                     	;# 
  1147     1E98                     	;# 
  1148     1E99                     	;# 
  1149     1E9A                     	;# 
  1150     1E9B                     	;# 
  1151     1E9C                     	;# 
  1152     1E9D                     	;# 
  1153     1EA0                     	;# 
  1154     1EA1                     	;# 
  1155     1EA2                     	;# 
  1156     1EA3                     	;# 
  1157     1EA4                     	;# 
  1158     1EA5                     	;# 
  1159     1EA6                     	;# 
  1160     1EA7                     	;# 
  1161     1EAA                     	;# 
  1162     1EAB                     	;# 
  1163     1EAC                     	;# 
  1164     1EAD                     	;# 
  1165     1EAE                     	;# 
  1166     1EB4                     	;# 
  1167     1EB5                     	;# 
  1168     1EB6                     	;# 
  1169     1EB7                     	;# 
  1170     1EB8                     	;# 
  1171     1EB9                     	;# 
  1172     1EBA                     	;# 
  1173     1EBB                     	;# 
  1174     1EE3                     	;# 
  1175     1EE4                     	;# 
  1176     1EEB                     	;# 
  1177     1EEC                     	;# 
  1178     1EEE                     	;# 
  1179     1EEF                     	;# 
  1180     1F0C                     	;# 
  1181     1F0D                     	;# 
  1182     1F0E                     	;# 
  1183     1FE4                     	;# 
  1184     1FE5                     	;# 
  1185     1FE6                     	;# 
  1186     1FE7                     	;# 
  1187     1FE8                     	;# 
  1188     1FE8                     	;# 
  1189     1FE9                     	;# 
  1190     1FEA                     	;# 
  1191     1FEA                     	;# 
  1192     1FEB                     	;# 
  1193     1FED                     	;# 
  1194     1FEE                     	;# 
  1195     1FEF                     	;# 
  1196     0000                     	;# 
  1197     0001                     	;# 
  1198     0002                     	;# 
  1199     0003                     	;# 
  1200     0004                     	;# 
  1201     0005                     	;# 
  1202     0006                     	;# 
  1203     0007                     	;# 
  1204     0008                     	;# 
  1205     0009                     	;# 
  1206     000A                     	;# 
  1207     000B                     	;# 
  1208     000C                     	;# 
  1209     000D                     	;# 
  1210     000E                     	;# 
  1211     000F                     	;# 
  1212     0010                     	;# 
  1213     0012                     	;# 
  1214     0013                     	;# 
  1215     0014                     	;# 
  1216     0015                     	;# 
  1217     0016                     	;# 
  1218     0018                     	;# 
  1219     0019                     	;# 
  1220     001A                     	;# 
  1221     001B                     	;# 
  1222     001C                     	;# 
  1223     008C                     	;# 
  1224     008D                     	;# 
  1225     008E                     	;# 
  1226     008F                     	;# 
  1227     0090                     	;# 
  1228     0096                     	;# 
  1229     0097                     	;# 
  1230     0098                     	;# 
  1231     0099                     	;# 
  1232     009A                     	;# 
  1233     018C                     	;# 
  1234     018D                     	;# 
  1235     018E                     	;# 
  1236     018F                     	;# 
  1237     019C                     	;# 
  1238     019C                     	;# 
  1239     019D                     	;# 
  1240     019D                     	;# 
  1241     019E                     	;# 
  1242     019F                     	;# 
  1243     020E                     	;# 
  1244     020F                     	;# 
  1245     0210                     	;# 
  1246     0211                     	;# 
  1247     0212                     	;# 
  1248     0213                     	;# 
  1249     0214                     	;# 
  1250     028C                     	;# 
  1251     028C                     	;# 
  1252     028D                     	;# 
  1253     028E                     	;# 
  1254     028F                     	;# 
  1255     028F                     	;# 
  1256     0290                     	;# 
  1257     0290                     	;# 
  1258     0291                     	;# 
  1259     0291                     	;# 
  1260     0292                     	;# 
  1261     0292                     	;# 
  1262     0293                     	;# 
  1263     0294                     	;# 
  1264     0295                     	;# 
  1265     0295                     	;# 
  1266     0296                     	;# 
  1267     0296                     	;# 
  1268     0297                     	;# 
  1269     0297                     	;# 
  1270     030C                     	;# 
  1271     030C                     	;# 
  1272     030D                     	;# 
  1273     030D                     	;# 
  1274     030E                     	;# 
  1275     030F                     	;# 
  1276     0310                     	;# 
  1277     0310                     	;# 
  1278     0311                     	;# 
  1279     0312                     	;# 
  1280     0312                     	;# 
  1281     0313                     	;# 
  1282     0313                     	;# 
  1283     0314                     	;# 
  1284     0315                     	;# 
  1285     0316                     	;# 
  1286     0316                     	;# 
  1287     0317                     	;# 
  1288     0318                     	;# 
  1289     0318                     	;# 
  1290     0319                     	;# 
  1291     0319                     	;# 
  1292     031A                     	;# 
  1293     031B                     	;# 
  1294     031C                     	;# 
  1295     031C                     	;# 
  1296     031D                     	;# 
  1297     038C                     	;# 
  1298     038C                     	;# 
  1299     038D                     	;# 
  1300     038E                     	;# 
  1301     038F                     	;# 
  1302     0390                     	;# 
  1303     0390                     	;# 
  1304     0391                     	;# 
  1305     0392                     	;# 
  1306     0393                     	;# 
  1307     039F                     	;# 
  1308     040C                     	;# 
  1309     040C                     	;# 
  1310     040D                     	;# 
  1311     040E                     	;# 
  1312     040F                     	;# 
  1313     040F                     	;# 
  1314     0410                     	;# 
  1315     0411                     	;# 
  1316     0412                     	;# 
  1317     0412                     	;# 
  1318     0413                     	;# 
  1319     0414                     	;# 
  1320     041F                     	;# 
  1321     048C                     	;# 
  1322     048C                     	;# 
  1323     048D                     	;# 
  1324     048E                     	;# 
  1325     048F                     	;# 
  1326     048F                     	;# 
  1327     0490                     	;# 
  1328     0491                     	;# 
  1329     0492                     	;# 
  1330     0493                     	;# 
  1331     050C                     	;# 
  1332     050C                     	;# 
  1333     050D                     	;# 
  1334     050D                     	;# 
  1335     050E                     	;# 
  1336     050F                     	;# 
  1337     0510                     	;# 
  1338     0511                     	;# 
  1339     0512                     	;# 
  1340     0513                     	;# 
  1341     0514                     	;# 
  1342     058C                     	;# 
  1343     058D                     	;# 
  1344     058E                     	;# 
  1345     058F                     	;# 
  1346     0590                     	;# 
  1347     0591                     	;# 
  1348     0592                     	;# 
  1349     0593                     	;# 
  1350     0594                     	;# 
  1351     0595                     	;# 
  1352     0596                     	;# 
  1353     0597                     	;# 
  1354     060C                     	;# 
  1355     060D                     	;# 
  1356     060E                     	;# 
  1357     060E                     	;# 
  1358     060F                     	;# 
  1359     0610                     	;# 
  1360     0611                     	;# 
  1361     0612                     	;# 
  1362     0616                     	;# 
  1363     0617                     	;# 
  1364     0618                     	;# 
  1365     0618                     	;# 
  1366     0619                     	;# 
  1367     061A                     	;# 
  1368     061B                     	;# 
  1369     061C                     	;# 
  1370     068C                     	;# 
  1371     068D                     	;# 
  1372     068E                     	;# 
  1373     068F                     	;# 
  1374     0690                     	;# 
  1375     0691                     	;# 
  1376     0692                     	;# 
  1377     0696                     	;# 
  1378     0697                     	;# 
  1379     0698                     	;# 
  1380     0699                     	;# 
  1381     069A                     	;# 
  1382     069B                     	;# 
  1383     069C                     	;# 
  1384     100C                     	;# 
  1385     100D                     	;# 
  1386     101F                     	;# 
  1387     108C                     	;# 
  1388     108D                     	;# 
  1389     108E                     	;# 
  1390     108F                     	;# 
  1391     109F                     	;# 
  1392     109F                     	;# 
  1393     110C                     	;# 
  1394     110D                     	;# 
  1395     1C8C                     	;# 
  1396     1C8C                     	;# 
  1397     1C8D                     	;# 
  1398     1C8E                     	;# 
  1399     1C8E                     	;# 
  1400     1C8F                     	;# 
  1401     1C90                     	;# 
  1402     1C91                     	;# 
  1403     1D0C                     	;# 
  1404     1D0C                     	;# 
  1405     1D0D                     	;# 
  1406     1D0E                     	;# 
  1407     1D0E                     	;# 
  1408     1D0F                     	;# 
  1409     1D10                     	;# 
  1410     1D10                     	;# 
  1411     1D11                     	;# 
  1412     1D12                     	;# 
  1413     1D12                     	;# 
  1414     1D13                     	;# 
  1415     1D14                     	;# 
  1416     1D14                     	;# 
  1417     1D15                     	;# 
  1418     1D16                     	;# 
  1419     1D16                     	;# 
  1420     1D17                     	;# 
  1421     1D18                     	;# 
  1422     1D19                     	;# 
  1423     1D1A                     	;# 
  1424     1D1B                     	;# 
  1425     1D1B                     	;# 
  1426     1D1C                     	;# 
  1427     1D1D                     	;# 
  1428     1D1D                     	;# 
  1429     1D1E                     	;# 
  1430     1D1F                     	;# 
  1431     1D21                     	;# 
  1432     1D21                     	;# 
  1433     1D22                     	;# 
  1434     1D23                     	;# 
  1435     1D24                     	;# 
  1436     1D24                     	;# 
  1437     1D25                     	;# 
  1438     1D26                     	;# 
  1439     1D27                     	;# 
  1440     1D28                     	;# 
  1441     1D29                     	;# 
  1442     1D2A                     	;# 
  1443     1D2B                     	;# 
  1444     1D2C                     	;# 
  1445     1D2D                     	;# 
  1446     1D2E                     	;# 
  1447     1D2F                     	;# 
  1448     1D30                     	;# 
  1449     1D31                     	;# 
  1450     1D32                     	;# 
  1451     1D8C                     	;# 
  1452     1D8D                     	;# 
  1453     1D8E                     	;# 
  1454     1D8F                     	;# 
  1455     1D90                     	;# 
  1456     1D91                     	;# 
  1457     1D92                     	;# 
  1458     1D93                     	;# 
  1459     1D94                     	;# 
  1460     1D95                     	;# 
  1461     1D96                     	;# 
  1462     1D97                     	;# 
  1463     1D98                     	;# 
  1464     1D99                     	;# 
  1465     1D9A                     	;# 
  1466     1D9B                     	;# 
  1467     1D9C                     	;# 
  1468     1D9D                     	;# 
  1469     1D9E                     	;# 
  1470     1D9F                     	;# 
  1471     1DA0                     	;# 
  1472     1DA1                     	;# 
  1473     1DA2                     	;# 
  1474     1DA3                     	;# 
  1475     1DA4                     	;# 
  1476     1DA5                     	;# 
  1477     1DA6                     	;# 
  1478     1DA7                     	;# 
  1479     1DA8                     	;# 
  1480     1DA9                     	;# 
  1481     1DAA                     	;# 
  1482     1DAB                     	;# 
  1483     1DAC                     	;# 
  1484     1DAD                     	;# 
  1485     1DAE                     	;# 
  1486     1E0C                     	;# 
  1487     1E0D                     	;# 
  1488     1E0E                     	;# 
  1489     1E0F                     	;# 
  1490     1E10                     	;# 
  1491     1E11                     	;# 
  1492     1E12                     	;# 
  1493     1E19                     	;# 
  1494     1E1A                     	;# 
  1495     1E1B                     	;# 
  1496     1E1E                     	;# 
  1497     1E1F                     	;# 
  1498     1E39                     	;# 
  1499     1E3D                     	;# 
  1500     1E3E                     	;# 
  1501     1E3F                     	;# 
  1502     1E40                     	;# 
  1503     1E41                     	;# 
  1504     1E41                     	;# 
  1505     1E42                     	;# 
  1506     1E42                     	;# 
  1507     1E43                     	;# 
  1508     1E43                     	;# 
  1509     1E44                     	;# 
  1510     1E44                     	;# 
  1511     1E47                     	;# 
  1512     1E48                     	;# 
  1513     1E49                     	;# 
  1514     1E4A                     	;# 
  1515     1E4B                     	;# 
  1516     1E4C                     	;# 
  1517     1E50                     	;# 
  1518     1E8C                     	;# 
  1519     1E8D                     	;# 
  1520     1E8E                     	;# 
  1521     1E8F                     	;# 
  1522     1E90                     	;# 
  1523     1E91                     	;# 
  1524     1E92                     	;# 
  1525     1E93                     	;# 
  1526     1E96                     	;# 
  1527     1E97                     	;# 
  1528     1E98                     	;# 
  1529     1E99                     	;# 
  1530     1E9A                     	;# 
  1531     1E9B                     	;# 
  1532     1E9C                     	;# 
  1533     1E9D                     	;# 
  1534     1EA0                     	;# 
  1535     1EA1                     	;# 
  1536     1EA2                     	;# 
  1537     1EA3                     	;# 
  1538     1EA4                     	;# 
  1539     1EA5                     	;# 
  1540     1EA6                     	;# 
  1541     1EA7                     	;# 
  1542     1EAA                     	;# 
  1543     1EAB                     	;# 
  1544     1EAC                     	;# 
  1545     1EAD                     	;# 
  1546     1EAE                     	;# 
  1547     1EB4                     	;# 
  1548     1EB5                     	;# 
  1549     1EB6                     	;# 
  1550     1EB7                     	;# 
  1551     1EB8                     	;# 
  1552     1EB9                     	;# 
  1553     1EBA                     	;# 
  1554     1EBB                     	;# 
  1555     1EE3                     	;# 
  1556     1EE4                     	;# 
  1557     1EEB                     	;# 
  1558     1EEC                     	;# 
  1559     1EEE                     	;# 
  1560     1EEF                     	;# 
  1561     1F0C                     	;# 
  1562     1F0D                     	;# 
  1563     1F0E                     	;# 
  1564     1FE4                     	;# 
  1565     1FE5                     	;# 
  1566     1FE6                     	;# 
  1567     1FE7                     	;# 
  1568     1FE8                     	;# 
  1569     1FE8                     	;# 
  1570     1FE9                     	;# 
  1571     1FEA                     	;# 
  1572     1FEA                     	;# 
  1573     1FEB                     	;# 
  1574     1FED                     	;# 
  1575     1FEE                     	;# 
  1576     1FEF                     	;# 
  1577     0000                     	;# 
  1578     0001                     	;# 
  1579     0002                     	;# 
  1580     0003                     	;# 
  1581     0004                     	;# 
  1582     0005                     	;# 
  1583     0006                     	;# 
  1584     0007                     	;# 
  1585     0008                     	;# 
  1586     0009                     	;# 
  1587     000A                     	;# 
  1588     000B                     	;# 
  1589     000C                     	;# 
  1590     000D                     	;# 
  1591     000E                     	;# 
  1592     000F                     	;# 
  1593     0010                     	;# 
  1594     0012                     	;# 
  1595     0013                     	;# 
  1596     0014                     	;# 
  1597     0015                     	;# 
  1598     0016                     	;# 
  1599     0018                     	;# 
  1600     0019                     	;# 
  1601     001A                     	;# 
  1602     001B                     	;# 
  1603     001C                     	;# 
  1604     008C                     	;# 
  1605     008D                     	;# 
  1606     008E                     	;# 
  1607     008F                     	;# 
  1608     0090                     	;# 
  1609     0096                     	;# 
  1610     0097                     	;# 
  1611     0098                     	;# 
  1612     0099                     	;# 
  1613     009A                     	;# 
  1614     018C                     	;# 
  1615     018D                     	;# 
  1616     018E                     	;# 
  1617     018F                     	;# 
  1618     019C                     	;# 
  1619     019C                     	;# 
  1620     019D                     	;# 
  1621     019D                     	;# 
  1622     019E                     	;# 
  1623     019F                     	;# 
  1624     020E                     	;# 
  1625     020F                     	;# 
  1626     0210                     	;# 
  1627     0211                     	;# 
  1628     0212                     	;# 
  1629     0213                     	;# 
  1630     0214                     	;# 
  1631     028C                     	;# 
  1632     028C                     	;# 
  1633     028D                     	;# 
  1634     028E                     	;# 
  1635     028F                     	;# 
  1636     028F                     	;# 
  1637     0290                     	;# 
  1638     0290                     	;# 
  1639     0291                     	;# 
  1640     0291                     	;# 
  1641     0292                     	;# 
  1642     0292                     	;# 
  1643     0293                     	;# 
  1644     0294                     	;# 
  1645     0295                     	;# 
  1646     0295                     	;# 
  1647     0296                     	;# 
  1648     0296                     	;# 
  1649     0297                     	;# 
  1650     0297                     	;# 
  1651     030C                     	;# 
  1652     030C                     	;# 
  1653     030D                     	;# 
  1654     030D                     	;# 
  1655     030E                     	;# 
  1656     030F                     	;# 
  1657     0310                     	;# 
  1658     0310                     	;# 
  1659     0311                     	;# 
  1660     0312                     	;# 
  1661     0312                     	;# 
  1662     0313                     	;# 
  1663     0313                     	;# 
  1664     0314                     	;# 
  1665     0315                     	;# 
  1666     0316                     	;# 
  1667     0316                     	;# 
  1668     0317                     	;# 
  1669     0318                     	;# 
  1670     0318                     	;# 
  1671     0319                     	;# 
  1672     0319                     	;# 
  1673     031A                     	;# 
  1674     031B                     	;# 
  1675     031C                     	;# 
  1676     031C                     	;# 
  1677     031D                     	;# 
  1678     038C                     	;# 
  1679     038C                     	;# 
  1680     038D                     	;# 
  1681     038E                     	;# 
  1682     038F                     	;# 
  1683     0390                     	;# 
  1684     0390                     	;# 
  1685     0391                     	;# 
  1686     0392                     	;# 
  1687     0393                     	;# 
  1688     039F                     	;# 
  1689     040C                     	;# 
  1690     040C                     	;# 
  1691     040D                     	;# 
  1692     040E                     	;# 
  1693     040F                     	;# 
  1694     040F                     	;# 
  1695     0410                     	;# 
  1696     0411                     	;# 
  1697     0412                     	;# 
  1698     0412                     	;# 
  1699     0413                     	;# 
  1700     0414                     	;# 
  1701     041F                     	;# 
  1702     048C                     	;# 
  1703     048C                     	;# 
  1704     048D                     	;# 
  1705     048E                     	;# 
  1706     048F                     	;# 
  1707     048F                     	;# 
  1708     0490                     	;# 
  1709     0491                     	;# 
  1710     0492                     	;# 
  1711     0493                     	;# 
  1712     050C                     	;# 
  1713     050C                     	;# 
  1714     050D                     	;# 
  1715     050D                     	;# 
  1716     050E                     	;# 
  1717     050F                     	;# 
  1718     0510                     	;# 
  1719     0511                     	;# 
  1720     0512                     	;# 
  1721     0513                     	;# 
  1722     0514                     	;# 
  1723     058C                     	;# 
  1724     058D                     	;# 
  1725     058E                     	;# 
  1726     058F                     	;# 
  1727     0590                     	;# 
  1728     0591                     	;# 
  1729     0592                     	;# 
  1730     0593                     	;# 
  1731     0594                     	;# 
  1732     0595                     	;# 
  1733     0596                     	;# 
  1734     0597                     	;# 
  1735     060C                     	;# 
  1736     060D                     	;# 
  1737     060E                     	;# 
  1738     060E                     	;# 
  1739     060F                     	;# 
  1740     0610                     	;# 
  1741     0611                     	;# 
  1742     0612                     	;# 
  1743     0616                     	;# 
  1744     0617                     	;# 
  1745     0618                     	;# 
  1746     0618                     	;# 
  1747     0619                     	;# 
  1748     061A                     	;# 
  1749     061B                     	;# 
  1750     061C                     	;# 
  1751     068C                     	;# 
  1752     068D                     	;# 
  1753     068E                     	;# 
  1754     068F                     	;# 
  1755     0690                     	;# 
  1756     0691                     	;# 
  1757     0692                     	;# 
  1758     0696                     	;# 
  1759     0697                     	;# 
  1760     0698                     	;# 
  1761     0699                     	;# 
  1762     069A                     	;# 
  1763     069B                     	;# 
  1764     069C                     	;# 
  1765     100C                     	;# 
  1766     100D                     	;# 
  1767     101F                     	;# 
  1768     108C                     	;# 
  1769     108D                     	;# 
  1770     108E                     	;# 
  1771     108F                     	;# 
  1772     109F                     	;# 
  1773     109F                     	;# 
  1774     110C                     	;# 
  1775     110D                     	;# 
  1776     1C8C                     	;# 
  1777     1C8C                     	;# 
  1778     1C8D                     	;# 
  1779     1C8E                     	;# 
  1780     1C8E                     	;# 
  1781     1C8F                     	;# 
  1782     1C90                     	;# 
  1783     1C91                     	;# 
  1784     1D0C                     	;# 
  1785     1D0C                     	;# 
  1786     1D0D                     	;# 
  1787     1D0E                     	;# 
  1788     1D0E                     	;# 
  1789     1D0F                     	;# 
  1790     1D10                     	;# 
  1791     1D10                     	;# 
  1792     1D11                     	;# 
  1793     1D12                     	;# 
  1794     1D12                     	;# 
  1795     1D13                     	;# 
  1796     1D14                     	;# 
  1797     1D14                     	;# 
  1798     1D15                     	;# 
  1799     1D16                     	;# 
  1800     1D16                     	;# 
  1801     1D17                     	;# 
  1802     1D18                     	;# 
  1803     1D19                     	;# 
  1804     1D1A                     	;# 
  1805     1D1B                     	;# 
  1806     1D1B                     	;# 
  1807     1D1C                     	;# 
  1808     1D1D                     	;# 
  1809     1D1D                     	;# 
  1810     1D1E                     	;# 
  1811     1D1F                     	;# 
  1812     1D21                     	;# 
  1813     1D21                     	;# 
  1814     1D22                     	;# 
  1815     1D23                     	;# 
  1816     1D24                     	;# 
  1817     1D24                     	;# 
  1818     1D25                     	;# 
  1819     1D26                     	;# 
  1820     1D27                     	;# 
  1821     1D28                     	;# 
  1822     1D29                     	;# 
  1823     1D2A                     	;# 
  1824     1D2B                     	;# 
  1825     1D2C                     	;# 
  1826     1D2D                     	;# 
  1827     1D2E                     	;# 
  1828     1D2F                     	;# 
  1829     1D30                     	;# 
  1830     1D31                     	;# 
  1831     1D32                     	;# 
  1832     1D8C                     	;# 
  1833     1D8D                     	;# 
  1834     1D8E                     	;# 
  1835     1D8F                     	;# 
  1836     1D90                     	;# 
  1837     1D91                     	;# 
  1838     1D92                     	;# 
  1839     1D93                     	;# 
  1840     1D94                     	;# 
  1841     1D95                     	;# 
  1842     1D96                     	;# 
  1843     1D97                     	;# 
  1844     1D98                     	;# 
  1845     1D99                     	;# 
  1846     1D9A                     	;# 
  1847     1D9B                     	;# 
  1848     1D9C                     	;# 
  1849     1D9D                     	;# 
  1850     1D9E                     	;# 
  1851     1D9F                     	;# 
  1852     1DA0                     	;# 
  1853     1DA1                     	;# 
  1854     1DA2                     	;# 
  1855     1DA3                     	;# 
  1856     1DA4                     	;# 
  1857     1DA5                     	;# 
  1858     1DA6                     	;# 
  1859     1DA7                     	;# 
  1860     1DA8                     	;# 
  1861     1DA9                     	;# 
  1862     1DAA                     	;# 
  1863     1DAB                     	;# 
  1864     1DAC                     	;# 
  1865     1DAD                     	;# 
  1866     1DAE                     	;# 
  1867     1E0C                     	;# 
  1868     1E0D                     	;# 
  1869     1E0E                     	;# 
  1870     1E0F                     	;# 
  1871     1E10                     	;# 
  1872     1E11                     	;# 
  1873     1E12                     	;# 
  1874     1E19                     	;# 
  1875     1E1A                     	;# 
  1876     1E1B                     	;# 
  1877     1E1E                     	;# 
  1878     1E1F                     	;# 
  1879     1E39                     	;# 
  1880     1E3D                     	;# 
  1881     1E3E                     	;# 
  1882     1E3F                     	;# 
  1883     1E40                     	;# 
  1884     1E41                     	;# 
  1885     1E41                     	;# 
  1886     1E42                     	;# 
  1887     1E42                     	;# 
  1888     1E43                     	;# 
  1889     1E43                     	;# 
  1890     1E44                     	;# 
  1891     1E44                     	;# 
  1892     1E47                     	;# 
  1893     1E48                     	;# 
  1894     1E49                     	;# 
  1895     1E4A                     	;# 
  1896     1E4B                     	;# 
  1897     1E4C                     	;# 
  1898     1E50                     	;# 
  1899     1E8C                     	;# 
  1900     1E8D                     	;# 
  1901     1E8E                     	;# 
  1902     1E8F                     	;# 
  1903     1E90                     	;# 
  1904     1E91                     	;# 
  1905     1E92                     	;# 
  1906     1E93                     	;# 
  1907     1E96                     	;# 
  1908     1E97                     	;# 
  1909     1E98                     	;# 
  1910     1E99                     	;# 
  1911     1E9A                     	;# 
  1912     1E9B                     	;# 
  1913     1E9C                     	;# 
  1914     1E9D                     	;# 
  1915     1EA0                     	;# 
  1916     1EA1                     	;# 
  1917     1EA2                     	;# 
  1918     1EA3                     	;# 
  1919     1EA4                     	;# 
  1920     1EA5                     	;# 
  1921     1EA6                     	;# 
  1922     1EA7                     	;# 
  1923     1EAA                     	;# 
  1924     1EAB                     	;# 
  1925     1EAC                     	;# 
  1926     1EAD                     	;# 
  1927     1EAE                     	;# 
  1928     1EB4                     	;# 
  1929     1EB5                     	;# 
  1930     1EB6                     	;# 
  1931     1EB7                     	;# 
  1932     1EB8                     	;# 
  1933     1EB9                     	;# 
  1934     1EBA                     	;# 
  1935     1EBB                     	;# 
  1936     1EE3                     	;# 
  1937     1EE4                     	;# 
  1938     1EEB                     	;# 
  1939     1EEC                     	;# 
  1940     1EEE                     	;# 
  1941     1EEF                     	;# 
  1942     1F0C                     	;# 
  1943     1F0D                     	;# 
  1944     1F0E                     	;# 
  1945     1FE4                     	;# 
  1946     1FE5                     	;# 
  1947     1FE6                     	;# 
  1948     1FE7                     	;# 
  1949     1FE8                     	;# 
  1950     1FE8                     	;# 
  1951     1FE9                     	;# 
  1952     1FEA                     	;# 
  1953     1FEA                     	;# 
  1954     1FEB                     	;# 
  1955     1FED                     	;# 
  1956     1FEE                     	;# 
  1957     1FEF                     	;# 
  1958     0000                     	;# 
  1959     0001                     	;# 
  1960     0002                     	;# 
  1961     0003                     	;# 
  1962     0004                     	;# 
  1963     0005                     	;# 
  1964     0006                     	;# 
  1965     0007                     	;# 
  1966     0008                     	;# 
  1967     0009                     	;# 
  1968     000A                     	;# 
  1969     000B                     	;# 
  1970     000C                     	;# 
  1971     000D                     	;# 
  1972     000E                     	;# 
  1973     000F                     	;# 
  1974     0010                     	;# 
  1975     0012                     	;# 
  1976     0013                     	;# 
  1977     0014                     	;# 
  1978     0015                     	;# 
  1979     0016                     	;# 
  1980     0018                     	;# 
  1981     0019                     	;# 
  1982     001A                     	;# 
  1983     001B                     	;# 
  1984     001C                     	;# 
  1985     008C                     	;# 
  1986     008D                     	;# 
  1987     008E                     	;# 
  1988     008F                     	;# 
  1989     0090                     	;# 
  1990     0096                     	;# 
  1991     0097                     	;# 
  1992     0098                     	;# 
  1993     0099                     	;# 
  1994     009A                     	;# 
  1995     018C                     	;# 
  1996     018D                     	;# 
  1997     018E                     	;# 
  1998     018F                     	;# 
  1999     019C                     	;# 
  2000     019C                     	;# 
  2001     019D                     	;# 
  2002     019D                     	;# 
  2003     019E                     	;# 
  2004     019F                     	;# 
  2005     020E                     	;# 
  2006     020F                     	;# 
  2007     0210                     	;# 
  2008     0211                     	;# 
  2009     0212                     	;# 
  2010     0213                     	;# 
  2011     0214                     	;# 
  2012     028C                     	;# 
  2013     028C                     	;# 
  2014     028D                     	;# 
  2015     028E                     	;# 
  2016     028F                     	;# 
  2017     028F                     	;# 
  2018     0290                     	;# 
  2019     0290                     	;# 
  2020     0291                     	;# 
  2021     0291                     	;# 
  2022     0292                     	;# 
  2023     0292                     	;# 
  2024     0293                     	;# 
  2025     0294                     	;# 
  2026     0295                     	;# 
  2027     0295                     	;# 
  2028     0296                     	;# 
  2029     0296                     	;# 
  2030     0297                     	;# 
  2031     0297                     	;# 
  2032     030C                     	;# 
  2033     030C                     	;# 
  2034     030D                     	;# 
  2035     030D                     	;# 
  2036     030E                     	;# 
  2037     030F                     	;# 
  2038     0310                     	;# 
  2039     0310                     	;# 
  2040     0311                     	;# 
  2041     0312                     	;# 
  2042     0312                     	;# 
  2043     0313                     	;# 
  2044     0313                     	;# 
  2045     0314                     	;# 
  2046     0315                     	;# 
  2047     0316                     	;# 
  2048     0316                     	;# 
  2049     0317                     	;# 
  2050     0318                     	;# 
  2051     0318                     	;# 
  2052     0319                     	;# 
  2053     0319                     	;# 
  2054     031A                     	;# 
  2055     031B                     	;# 
  2056     031C                     	;# 
  2057     031C                     	;# 
  2058     031D                     	;# 
  2059     038C                     	;# 
  2060     038C                     	;# 
  2061     038D                     	;# 
  2062     038E                     	;# 
  2063     038F                     	;# 
  2064     0390                     	;# 
  2065     0390                     	;# 
  2066     0391                     	;# 
  2067     0392                     	;# 
  2068     0393                     	;# 
  2069     039F                     	;# 
  2070     040C                     	;# 
  2071     040C                     	;# 
  2072     040D                     	;# 
  2073     040E                     	;# 
  2074     040F                     	;# 
  2075     040F                     	;# 
  2076     0410                     	;# 
  2077     0411                     	;# 
  2078     0412                     	;# 
  2079     0412                     	;# 
  2080     0413                     	;# 
  2081     0414                     	;# 
  2082     041F                     	;# 
  2083     048C                     	;# 
  2084     048C                     	;# 
  2085     048D                     	;# 
  2086     048E                     	;# 
  2087     048F                     	;# 
  2088     048F                     	;# 
  2089     0490                     	;# 
  2090     0491                     	;# 
  2091     0492                     	;# 
  2092     0493                     	;# 
  2093     050C                     	;# 
  2094     050C                     	;# 
  2095     050D                     	;# 
  2096     050D                     	;# 
  2097     050E                     	;# 
  2098     050F                     	;# 
  2099     0510                     	;# 
  2100     0511                     	;# 
  2101     0512                     	;# 
  2102     0513                     	;# 
  2103     0514                     	;# 
  2104     058C                     	;# 
  2105     058D                     	;# 
  2106     058E                     	;# 
  2107     058F                     	;# 
  2108     0590                     	;# 
  2109     0591                     	;# 
  2110     0592                     	;# 
  2111     0593                     	;# 
  2112     0594                     	;# 
  2113     0595                     	;# 
  2114     0596                     	;# 
  2115     0597                     	;# 
  2116     060C                     	;# 
  2117     060D                     	;# 
  2118     060E                     	;# 
  2119     060E                     	;# 
  2120     060F                     	;# 
  2121     0610                     	;# 
  2122     0611                     	;# 
  2123     0612                     	;# 
  2124     0616                     	;# 
  2125     0617                     	;# 
  2126     0618                     	;# 
  2127     0618                     	;# 
  2128     0619                     	;# 
  2129     061A                     	;# 
  2130     061B                     	;# 
  2131     061C                     	;# 
  2132     068C                     	;# 
  2133     068D                     	;# 
  2134     068E                     	;# 
  2135     068F                     	;# 
  2136     0690                     	;# 
  2137     0691                     	;# 
  2138     0692                     	;# 
  2139     0696                     	;# 
  2140     0697                     	;# 
  2141     0698                     	;# 
  2142     0699                     	;# 
  2143     069A                     	;# 
  2144     069B                     	;# 
  2145     069C                     	;# 
  2146     100C                     	;# 
  2147     100D                     	;# 
  2148     101F                     	;# 
  2149     108C                     	;# 
  2150     108D                     	;# 
  2151     108E                     	;# 
  2152     108F                     	;# 
  2153     109F                     	;# 
  2154     109F                     	;# 
  2155     110C                     	;# 
  2156     110D                     	;# 
  2157     1C8C                     	;# 
  2158     1C8C                     	;# 
  2159     1C8D                     	;# 
  2160     1C8E                     	;# 
  2161     1C8E                     	;# 
  2162     1C8F                     	;# 
  2163     1C90                     	;# 
  2164     1C91                     	;# 
  2165     1D0C                     	;# 
  2166     1D0C                     	;# 
  2167     1D0D                     	;# 
  2168     1D0E                     	;# 
  2169     1D0E                     	;# 
  2170     1D0F                     	;# 
  2171     1D10                     	;# 
  2172     1D10                     	;# 
  2173     1D11                     	;# 
  2174     1D12                     	;# 
  2175     1D12                     	;# 
  2176     1D13                     	;# 
  2177     1D14                     	;# 
  2178     1D14                     	;# 
  2179     1D15                     	;# 
  2180     1D16                     	;# 
  2181     1D16                     	;# 
  2182     1D17                     	;# 
  2183     1D18                     	;# 
  2184     1D19                     	;# 
  2185     1D1A                     	;# 
  2186     1D1B                     	;# 
  2187     1D1B                     	;# 
  2188     1D1C                     	;# 
  2189     1D1D                     	;# 
  2190     1D1D                     	;# 
  2191     1D1E                     	;# 
  2192     1D1F                     	;# 
  2193     1D21                     	;# 
  2194     1D21                     	;# 
  2195     1D22                     	;# 
  2196     1D23                     	;# 
  2197     1D24                     	;# 
  2198     1D24                     	;# 
  2199     1D25                     	;# 
  2200     1D26                     	;# 
  2201     1D27                     	;# 
  2202     1D28                     	;# 
  2203     1D29                     	;# 
  2204     1D2A                     	;# 
  2205     1D2B                     	;# 
  2206     1D2C                     	;# 
  2207     1D2D                     	;# 
  2208     1D2E                     	;# 
  2209     1D2F                     	;# 
  2210     1D30                     	;# 
  2211     1D31                     	;# 
  2212     1D32                     	;# 
  2213     1D8C                     	;# 
  2214     1D8D                     	;# 
  2215     1D8E                     	;# 
  2216     1D8F                     	;# 
  2217     1D90                     	;# 
  2218     1D91                     	;# 
  2219     1D92                     	;# 
  2220     1D93                     	;# 
  2221     1D94                     	;# 
  2222     1D95                     	;# 
  2223     1D96                     	;# 
  2224     1D97                     	;# 
  2225     1D98                     	;# 
  2226     1D99                     	;# 
  2227     1D9A                     	;# 
  2228     1D9B                     	;# 
  2229     1D9C                     	;# 
  2230     1D9D                     	;# 
  2231     1D9E                     	;# 
  2232     1D9F                     	;# 
  2233     1DA0                     	;# 
  2234     1DA1                     	;# 
  2235     1DA2                     	;# 
  2236     1DA3                     	;# 
  2237     1DA4                     	;# 
  2238     1DA5                     	;# 
  2239     1DA6                     	;# 
  2240     1DA7                     	;# 
  2241     1DA8                     	;# 
  2242     1DA9                     	;# 
  2243     1DAA                     	;# 
  2244     1DAB                     	;# 
  2245     1DAC                     	;# 
  2246     1DAD                     	;# 
  2247     1DAE                     	;# 
  2248     1E0C                     	;# 
  2249     1E0D                     	;# 
  2250     1E0E                     	;# 
  2251     1E0F                     	;# 
  2252     1E10                     	;# 
  2253     1E11                     	;# 
  2254     1E12                     	;# 
  2255     1E19                     	;# 
  2256     1E1A                     	;# 
  2257     1E1B                     	;# 
  2258     1E1E                     	;# 
  2259     1E1F                     	;# 
  2260     1E39                     	;# 
  2261     1E3D                     	;# 
  2262     1E3E                     	;# 
  2263     1E3F                     	;# 
  2264     1E40                     	;# 
  2265     1E41                     	;# 
  2266     1E41                     	;# 
  2267     1E42                     	;# 
  2268     1E42                     	;# 
  2269     1E43                     	;# 
  2270     1E43                     	;# 
  2271     1E44                     	;# 
  2272     1E44                     	;# 
  2273     1E47                     	;# 
  2274     1E48                     	;# 
  2275     1E49                     	;# 
  2276     1E4A                     	;# 
  2277     1E4B                     	;# 
  2278     1E4C                     	;# 
  2279     1E50                     	;# 
  2280     1E8C                     	;# 
  2281     1E8D                     	;# 
  2282     1E8E                     	;# 
  2283     1E8F                     	;# 
  2284     1E90                     	;# 
  2285     1E91                     	;# 
  2286     1E92                     	;# 
  2287     1E93                     	;# 
  2288     1E96                     	;# 
  2289     1E97                     	;# 
  2290     1E98                     	;# 
  2291     1E99                     	;# 
  2292     1E9A                     	;# 
  2293     1E9B                     	;# 
  2294     1E9C                     	;# 
  2295     1E9D                     	;# 
  2296     1EA0                     	;# 
  2297     1EA1                     	;# 
  2298     1EA2                     	;# 
  2299     1EA3                     	;# 
  2300     1EA4                     	;# 
  2301     1EA5                     	;# 
  2302     1EA6                     	;# 
  2303     1EA7                     	;# 
  2304     1EAA                     	;# 
  2305     1EAB                     	;# 
  2306     1EAC                     	;# 
  2307     1EAD                     	;# 
  2308     1EAE                     	;# 
  2309     1EB4                     	;# 
  2310     1EB5                     	;# 
  2311     1EB6                     	;# 
  2312     1EB7                     	;# 
  2313     1EB8                     	;# 
  2314     1EB9                     	;# 
  2315     1EBA                     	;# 
  2316     1EBB                     	;# 
  2317     1EE3                     	;# 
  2318     1EE4                     	;# 
  2319     1EEB                     	;# 
  2320     1EEC                     	;# 
  2321     1EEE                     	;# 
  2322     1EEF                     	;# 
  2323     1F0C                     	;# 
  2324     1F0D                     	;# 
  2325     1F0E                     	;# 
  2326     1FE4                     	;# 
  2327     1FE5                     	;# 
  2328     1FE6                     	;# 
  2329     1FE7                     	;# 
  2330     1FE8                     	;# 
  2331     1FE8                     	;# 
  2332     1FE9                     	;# 
  2333     1FEA                     	;# 
  2334     1FEA                     	;# 
  2335     1FEB                     	;# 
  2336     1FED                     	;# 
  2337     1FEE                     	;# 
  2338     1FEF                     	;# 
  2339     0000                     	;# 
  2340     0001                     	;# 
  2341     0002                     	;# 
  2342     0003                     	;# 
  2343     0004                     	;# 
  2344     0005                     	;# 
  2345     0006                     	;# 
  2346     0007                     	;# 
  2347     0008                     	;# 
  2348     0009                     	;# 
  2349     000A                     	;# 
  2350     000B                     	;# 
  2351     000C                     	;# 
  2352     000D                     	;# 
  2353     000E                     	;# 
  2354     000F                     	;# 
  2355     0010                     	;# 
  2356     0012                     	;# 
  2357     0013                     	;# 
  2358     0014                     	;# 
  2359     0015                     	;# 
  2360     0016                     	;# 
  2361     0018                     	;# 
  2362     0019                     	;# 
  2363     001A                     	;# 
  2364     001B                     	;# 
  2365     001C                     	;# 
  2366     008C                     	;# 
  2367     008D                     	;# 
  2368     008E                     	;# 
  2369     008F                     	;# 
  2370     0090                     	;# 
  2371     0096                     	;# 
  2372     0097                     	;# 
  2373     0098                     	;# 
  2374     0099                     	;# 
  2375     009A                     	;# 
  2376     018C                     	;# 
  2377     018D                     	;# 
  2378     018E                     	;# 
  2379     018F                     	;# 
  2380     019C                     	;# 
  2381     019C                     	;# 
  2382     019D                     	;# 
  2383     019D                     	;# 
  2384     019E                     	;# 
  2385     019F                     	;# 
  2386     020E                     	;# 
  2387     020F                     	;# 
  2388     0210                     	;# 
  2389     0211                     	;# 
  2390     0212                     	;# 
  2391     0213                     	;# 
  2392     0214                     	;# 
  2393     028C                     	;# 
  2394     028C                     	;# 
  2395     028D                     	;# 
  2396     028E                     	;# 
  2397     028F                     	;# 
  2398     028F                     	;# 
  2399     0290                     	;# 
  2400     0290                     	;# 
  2401     0291                     	;# 
  2402     0291                     	;# 
  2403     0292                     	;# 
  2404     0292                     	;# 
  2405     0293                     	;# 
  2406     0294                     	;# 
  2407     0295                     	;# 
  2408     0295                     	;# 
  2409     0296                     	;# 
  2410     0296                     	;# 
  2411     0297                     	;# 
  2412     0297                     	;# 
  2413     030C                     	;# 
  2414     030C                     	;# 
  2415     030D                     	;# 
  2416     030D                     	;# 
  2417     030E                     	;# 
  2418     030F                     	;# 
  2419     0310                     	;# 
  2420     0310                     	;# 
  2421     0311                     	;# 
  2422     0312                     	;# 
  2423     0312                     	;# 
  2424     0313                     	;# 
  2425     0313                     	;# 
  2426     0314                     	;# 
  2427     0315                     	;# 
  2428     0316                     	;# 
  2429     0316                     	;# 
  2430     0317                     	;# 
  2431     0318                     	;# 
  2432     0318                     	;# 
  2433     0319                     	;# 
  2434     0319                     	;# 
  2435     031A                     	;# 
  2436     031B                     	;# 
  2437     031C                     	;# 
  2438     031C                     	;# 
  2439     031D                     	;# 
  2440     038C                     	;# 
  2441     038C                     	;# 
  2442     038D                     	;# 
  2443     038E                     	;# 
  2444     038F                     	;# 
  2445     0390                     	;# 
  2446     0390                     	;# 
  2447     0391                     	;# 
  2448     0392                     	;# 
  2449     0393                     	;# 
  2450     039F                     	;# 
  2451     040C                     	;# 
  2452     040C                     	;# 
  2453     040D                     	;# 
  2454     040E                     	;# 
  2455     040F                     	;# 
  2456     040F                     	;# 
  2457     0410                     	;# 
  2458     0411                     	;# 
  2459     0412                     	;# 
  2460     0412                     	;# 
  2461     0413                     	;# 
  2462     0414                     	;# 
  2463     041F                     	;# 
  2464     048C                     	;# 
  2465     048C                     	;# 
  2466     048D                     	;# 
  2467     048E                     	;# 
  2468     048F                     	;# 
  2469     048F                     	;# 
  2470     0490                     	;# 
  2471     0491                     	;# 
  2472     0492                     	;# 
  2473     0493                     	;# 
  2474     050C                     	;# 
  2475     050C                     	;# 
  2476     050D                     	;# 
  2477     050D                     	;# 
  2478     050E                     	;# 
  2479     050F                     	;# 
  2480     0510                     	;# 
  2481     0511                     	;# 
  2482     0512                     	;# 
  2483     0513                     	;# 
  2484     0514                     	;# 
  2485     058C                     	;# 
  2486     058D                     	;# 
  2487     058E                     	;# 
  2488     058F                     	;# 
  2489     0590                     	;# 
  2490     0591                     	;# 
  2491     0592                     	;# 
  2492     0593                     	;# 
  2493     0594                     	;# 
  2494     0595                     	;# 
  2495     0596                     	;# 
  2496     0597                     	;# 
  2497     060C                     	;# 
  2498     060D                     	;# 
  2499     060E                     	;# 
  2500     060E                     	;# 
  2501     060F                     	;# 
  2502     0610                     	;# 
  2503     0611                     	;# 
  2504     0612                     	;# 
  2505     0616                     	;# 
  2506     0617                     	;# 
  2507     0618                     	;# 
  2508     0618                     	;# 
  2509     0619                     	;# 
  2510     061A                     	;# 
  2511     061B                     	;# 
  2512     061C                     	;# 
  2513     068C                     	;# 
  2514     068D                     	;# 
  2515     068E                     	;# 
  2516     068F                     	;# 
  2517     0690                     	;# 
  2518     0691                     	;# 
  2519     0692                     	;# 
  2520     0696                     	;# 
  2521     0697                     	;# 
  2522     0698                     	;# 
  2523     0699                     	;# 
  2524     069A                     	;# 
  2525     069B                     	;# 
  2526     069C                     	;# 
  2527     100C                     	;# 
  2528     100D                     	;# 
  2529     101F                     	;# 
  2530     108C                     	;# 
  2531     108D                     	;# 
  2532     108E                     	;# 
  2533     108F                     	;# 
  2534     109F                     	;# 
  2535     109F                     	;# 
  2536     110C                     	;# 
  2537     110D                     	;# 
  2538     1C8C                     	;# 
  2539     1C8C                     	;# 
  2540     1C8D                     	;# 
  2541     1C8E                     	;# 
  2542     1C8E                     	;# 
  2543     1C8F                     	;# 
  2544     1C90                     	;# 
  2545     1C91                     	;# 
  2546     1D0C                     	;# 
  2547     1D0C                     	;# 
  2548     1D0D                     	;# 
  2549     1D0E                     	;# 
  2550     1D0E                     	;# 
  2551     1D0F                     	;# 
  2552     1D10                     	;# 
  2553     1D10                     	;# 
  2554     1D11                     	;# 
  2555     1D12                     	;# 
  2556     1D12                     	;# 
  2557     1D13                     	;# 
  2558     1D14                     	;# 
  2559     1D14                     	;# 
  2560     1D15                     	;# 
  2561     1D16                     	;# 
  2562     1D16                     	;# 
  2563     1D17                     	;# 
  2564     1D18                     	;# 
  2565     1D19                     	;# 
  2566     1D1A                     	;# 
  2567     1D1B                     	;# 
  2568     1D1B                     	;# 
  2569     1D1C                     	;# 
  2570     1D1D                     	;# 
  2571     1D1D                     	;# 
  2572     1D1E                     	;# 
  2573     1D1F                     	;# 
  2574     1D21                     	;# 
  2575     1D21                     	;# 
  2576     1D22                     	;# 
  2577     1D23                     	;# 
  2578     1D24                     	;# 
  2579     1D24                     	;# 
  2580     1D25                     	;# 
  2581     1D26                     	;# 
  2582     1D27                     	;# 
  2583     1D28                     	;# 
  2584     1D29                     	;# 
  2585     1D2A                     	;# 
  2586     1D2B                     	;# 
  2587     1D2C                     	;# 
  2588     1D2D                     	;# 
  2589     1D2E                     	;# 
  2590     1D2F                     	;# 
  2591     1D30                     	;# 
  2592     1D31                     	;# 
  2593     1D32                     	;# 
  2594     1D8C                     	;# 
  2595     1D8D                     	;# 
  2596     1D8E                     	;# 
  2597     1D8F                     	;# 
  2598     1D90                     	;# 
  2599     1D91                     	;# 
  2600     1D92                     	;# 
  2601     1D93                     	;# 
  2602     1D94                     	;# 
  2603     1D95                     	;# 
  2604     1D96                     	;# 
  2605     1D97                     	;# 
  2606     1D98                     	;# 
  2607     1D99                     	;# 
  2608     1D9A                     	;# 
  2609     1D9B                     	;# 
  2610     1D9C                     	;# 
  2611     1D9D                     	;# 
  2612     1D9E                     	;# 
  2613     1D9F                     	;# 
  2614     1DA0                     	;# 
  2615     1DA1                     	;# 
  2616     1DA2                     	;# 
  2617     1DA3                     	;# 
  2618     1DA4                     	;# 
  2619     1DA5                     	;# 
  2620     1DA6                     	;# 
  2621     1DA7                     	;# 
  2622     1DA8                     	;# 
  2623     1DA9                     	;# 
  2624     1DAA                     	;# 
  2625     1DAB                     	;# 
  2626     1DAC                     	;# 
  2627     1DAD                     	;# 
  2628     1DAE                     	;# 
  2629     1E0C                     	;# 
  2630     1E0D                     	;# 
  2631     1E0E                     	;# 
  2632     1E0F                     	;# 
  2633     1E10                     	;# 
  2634     1E11                     	;# 
  2635     1E12                     	;# 
  2636     1E19                     	;# 
  2637     1E1A                     	;# 
  2638     1E1B                     	;# 
  2639     1E1E                     	;# 
  2640     1E1F                     	;# 
  2641     1E39                     	;# 
  2642     1E3D                     	;# 
  2643     1E3E                     	;# 
  2644     1E3F                     	;# 
  2645     1E40                     	;# 
  2646     1E41                     	;# 
  2647     1E41                     	;# 
  2648     1E42                     	;# 
  2649     1E42                     	;# 
  2650     1E43                     	;# 
  2651     1E43                     	;# 
  2652     1E44                     	;# 
  2653     1E44                     	;# 
  2654     1E47                     	;# 
  2655     1E48                     	;# 
  2656     1E49                     	;# 
  2657     1E4A                     	;# 
  2658     1E4B                     	;# 
  2659     1E4C                     	;# 
  2660     1E50                     	;# 
  2661     1E8C                     	;# 
  2662     1E8D                     	;# 
  2663     1E8E                     	;# 
  2664     1E8F                     	;# 
  2665     1E90                     	;# 
  2666     1E91                     	;# 
  2667     1E92                     	;# 
  2668     1E93                     	;# 
  2669     1E96                     	;# 
  2670     1E97                     	;# 
  2671     1E98                     	;# 
  2672     1E99                     	;# 
  2673     1E9A                     	;# 
  2674     1E9B                     	;# 
  2675     1E9C                     	;# 
  2676     1E9D                     	;# 
  2677     1EA0                     	;# 
  2678     1EA1                     	;# 
  2679     1EA2                     	;# 
  2680     1EA3                     	;# 
  2681     1EA4                     	;# 
  2682     1EA5                     	;# 
  2683     1EA6                     	;# 
  2684     1EA7                     	;# 
  2685     1EAA                     	;# 
  2686     1EAB                     	;# 
  2687     1EAC                     	;# 
  2688     1EAD                     	;# 
  2689     1EAE                     	;# 
  2690     1EB4                     	;# 
  2691     1EB5                     	;# 
  2692     1EB6                     	;# 
  2693     1EB7                     	;# 
  2694     1EB8                     	;# 
  2695     1EB9                     	;# 
  2696     1EBA                     	;# 
  2697     1EBB                     	;# 
  2698     1EE3                     	;# 
  2699     1EE4                     	;# 
  2700     1EEB                     	;# 
  2701     1EEC                     	;# 
  2702     1EEE                     	;# 
  2703     1EEF                     	;# 
  2704     1F0C                     	;# 
  2705     1F0D                     	;# 
  2706     1F0E                     	;# 
  2707     1FE4                     	;# 
  2708     1FE5                     	;# 
  2709     1FE6                     	;# 
  2710     1FE7                     	;# 
  2711     1FE8                     	;# 
  2712     1FE8                     	;# 
  2713     1FE9                     	;# 
  2714     1FEA                     	;# 
  2715     1FEA                     	;# 
  2716     1FEB                     	;# 
  2717     1FED                     	;# 
  2718     1FEE                     	;# 
  2719     1FEF                     	;# 
  2720                           
  2721 ;; Function _INT_DefaultInterruptHandler is unused but had its address taken
  2722     0000                     
  2723                           	psect	nvCOMMON
  2724     0073                     __pnvCOMMON:
  2725     0073                     _INT_InterruptHandler:
  2726     0073                     	ds	2
  2727     0018                     _LATAbits	set	24
  2728     0016                     _TRISE	set	22
  2729     0015                     _TRISD	set	21
  2730     0014                     _TRISC	set	20
  2731     0013                     _TRISB	set	19
  2732     0012                     _TRISA	set	18
  2733     001C                     _LATE	set	28
  2734     001B                     _LATD	set	27
  2735     001A                     _LATC	set	26
  2736     0019                     _LATB	set	25
  2737     0018                     _LATA	set	24
  2738     000B                     _INTCONbits	set	11
  2739     0096                     _PIE0bits	set	150
  2740     008C                     _PIR0bits	set	140
  2741     018C                     _WDTCONbits	set	396
  2742     018C                     _WDTCON	set	396
  2743     0214                     _ACTCON	set	532
  2744     0212                     _OSCTUNE	set	530
  2745     0210                     _OSCSTAT	set	528
  2746     0213                     _OSCFRQ	set	531
  2747     0211                     _OSCEN	set	529
  2748     020F                     _OSCCON3	set	527
  2749     020E                     _OSCCON2	set	526
  2750     1EBB                     _IOCEF	set	7867
  2751     1EBA                     _IOCEN	set	7866
  2752     1EB9                     _IOCEP	set	7865
  2753     1EA7                     _IOCCF	set	7847
  2754     1EA6                     _IOCCN	set	7846
  2755     1EA5                     _IOCCP	set	7845
  2756     1E9D                     _IOCBF	set	7837
  2757     1E9C                     _IOCBN	set	7836
  2758     1E9B                     _IOCBP	set	7835
  2759     1E93                     _IOCAF	set	7827
  2760     1E92                     _IOCAN	set	7826
  2761     1E91                     _IOCAP	set	7825
  2762     1EB8                     _INLVLE	set	7864
  2763     1EAE                     _INLVLD	set	7854
  2764     1EA4                     _INLVLC	set	7844
  2765     1E9A                     _INLVLB	set	7834
  2766     1E90                     _INLVLA	set	7824
  2767     1EB7                     _SLRCONE	set	7863
  2768     1EAD                     _SLRCOND	set	7853
  2769     1EA3                     _SLRCONC	set	7843
  2770     1E99                     _SLRCONB	set	7833
  2771     1E8F                     _SLRCONA	set	7823
  2772     1EB6                     _ODCONE	set	7862
  2773     1EAC                     _ODCOND	set	7852
  2774     1EA2                     _ODCONC	set	7842
  2775     1E98                     _ODCONB	set	7832
  2776     1E8E                     _ODCONA	set	7822
  2777     1EB5                     _WPUE	set	7861
  2778     1EAB                     _WPUD	set	7851
  2779     1EA1                     _WPUC	set	7841
  2780     1E97                     _WPUB	set	7831
  2781     1E8D                     _WPUA	set	7821
  2782     1EB4                     _ANSELE	set	7860
  2783     1EAA                     _ANSELD	set	7850
  2784     1EA0                     _ANSELC	set	7840
  2785     1E96                     _ANSELB	set	7830
  2786     1E8C                     _ANSELA	set	7820
  2787                           
  2788                           	psect	cinit
  2789     0016                     start_initialization:	
  2790                           ; #config settings
  2791                           
  2792     0016                     __initialization:
  2793     0016                     end_of_initialization:	
  2794                           ;End of C runtime variable initialization code
  2795                           
  2796     0016                     __end_of__initialization:
  2797     0016  107E               	bcf	int$flags,0	;clear compiler interrupt flag (level 1)
  2798     0017  0140               	movlb	0
  2799     0018  3180  2860         	ljmp	_main	;jump to C main() function
  2800                           
  2801                           	psect	cstackCOMMON
  2802     0070                     __pcstackCOMMON:
  2803     0070                     ?_CLOCK_Initialize:
  2804     0070                     ??_CLOCK_Initialize:	
  2805                           ; 1 bytes @ 0x0
  2806                           
  2807     0070                     ?_PIN_MANAGER_Initialize:	
  2808                           ; 1 bytes @ 0x0
  2809                           
  2810     0070                     ??_PIN_MANAGER_Initialize:	
  2811                           ; 1 bytes @ 0x0
  2812                           
  2813     0070                     ?_INTERRUPT_Initialize:	
  2814                           ; 1 bytes @ 0x0
  2815                           
  2816     0070                     ?_INT_SetInterruptHandler:	
  2817                           ; 1 bytes @ 0x0
  2818                           
  2819     0070                     ?_PIN_MANAGER_IOC:	
  2820                           ; 1 bytes @ 0x0
  2821                           
  2822     0070                     ??_PIN_MANAGER_IOC:	
  2823                           ; 1 bytes @ 0x0
  2824                           
  2825     0070                     ?_WDT_Initialize:	
  2826                           ; 1 bytes @ 0x0
  2827                           
  2828     0070                     ??_WDT_Initialize:	
  2829                           ; 1 bytes @ 0x0
  2830                           
  2831     0070                     ?_SYSTEM_Initialize:	
  2832                           ; 1 bytes @ 0x0
  2833                           
  2834     0070                     ?_INTERRUPT_InterruptManager:	
  2835                           ; 1 bytes @ 0x0
  2836                           
  2837     0070                     ??_INTERRUPT_InterruptManager:	
  2838                           ; 1 bytes @ 0x0
  2839                           
  2840     0070                     ?_main:	
  2841                           ; 1 bytes @ 0x0
  2842                           
  2843     0070                     INT_SetInterruptHandler@InterruptHandler:	
  2844                           ; 2 bytes @ 0x0
  2845                           
  2846                           
  2847                           ; 2 bytes @ 0x0
  2848     0070                     	ds	2
  2849     0072                     ??_INTERRUPT_Initialize:
  2850     0072                     ??_INT_SetInterruptHandler:	
  2851                           ; 1 bytes @ 0x2
  2852                           
  2853     0072                     ??_SYSTEM_Initialize:	
  2854                           ; 1 bytes @ 0x2
  2855                           
  2856     0072                     ??_main:	
  2857                           ; 1 bytes @ 0x2
  2858                           
  2859                           
  2860                           ; 1 bytes @ 0x2
  2861     0072                     	ds	1
  2862                           
  2863                           	psect	maintext
  2864     0060                     __pmaintext:	
  2865 ;;
  2866 ;;Main: autosize = 0, tempsize = 1, incstack = 0, save=0
  2867 ;;
  2868 ;; *************** function _main *****************
  2869 ;; Defined at:
  2870 ;;		line 39 in file "main.c"
  2871 ;; Parameters:    Size  Location     Type
  2872 ;;		None
  2873 ;; Auto vars:     Size  Location     Type
  2874 ;;		None
  2875 ;; Return value:  Size  Location     Type
  2876 ;;                  2  186[None  ] int 
  2877 ;; Registers used:
  2878 ;;		wreg, status,2, status,0, pclath, cstack
  2879 ;; Tracked objects:
  2880 ;;		On entry : B3F/0
  2881 ;;		On exit  : 0/0
  2882 ;;		Unchanged: 0/0
  2883 ;; Data sizes:     COMMON   BANK0   BANK1   BANK2   BANK3   BANK4   BANK5   BANK6   BANK7   BANK8   BANK9  BANK10  BANK1
      +1  BANK12  BANK13  BANK14  BANK15  BANK16  BANK17  BANK18  BANK19  BANK20  BANK21  BANK22  BANK23  BANK24  BANK25
  2884 ;;      Params:         0       0       0       0       0       0       0       0       0       0       0       0       
      +0       0       0       0       0       0       0       0       0       0       0       0       0       0       0
  2885 ;;      Locals:         0       0       0       0       0       0       0       0       0       0       0       0       
      +0       0       0       0       0       0       0       0       0       0       0       0       0       0       0
  2886 ;;      Temps:          1       0       0       0       0       0       0       0       0       0       0       0       
      +0       0       0       0       0       0       0       0       0       0       0       0       0       0       0
  2887 ;;      Totals:         1       0       0       0       0       0       0       0       0       0       0       0       
      +0       0       0       0       0       0       0       0       0       0       0       0       0       0       0
  2888 ;;Total ram usage:        1 bytes
  2889 ;; Hardware stack levels required when called: 5
  2890 ;; This function calls:
  2891 ;;		_SYSTEM_Initialize
  2892 ;; This function is called by:
  2893 ;;		Startup code after reset
  2894 ;; This function uses a non-reentrant model
  2895 ;;
  2896                           
  2897     0060                     _main:	
  2898                           ;psect for function _main
  2899                           
  2900     0060                     l906:	
  2901                           ;incstack = 0
  2902                           ; Regs used in _main: [wreg+status,2+status,0+pclath+cstack]
  2903                           
  2904                           
  2905                           ;main.c: 41:     SYSTEM_Initialize();
  2906     0060  3180  2077  3180   	fcall	_SYSTEM_Initialize
  2907     0063                     l908:
  2908     0063  0140               	movlb	0	; select bank0
  2909     0064  1498               	bsf	24,1	;volatile
  2910     0065                     l910:
  2911                           
  2912                           ;main.c: 64:         WDTCONbits.SEN = 1;
  2913     0065  0143               	movlb	3	; select bank3
  2914     0066  140C               	bsf	12,0	;volatile
  2915     0067  0063               	sleep	;# 
  2916     0068                     l912:
  2917                           
  2918                           ;main.c: 66:         __nop();
  2919     0068  0000               	nop
  2920     0069                     l914:
  2921                           
  2922                           ;main.c: 67:         WDTCONbits.SEN = 0;
  2923     0069  0143               	movlb	3	; select bank3
  2924     006A  100C               	bcf	12,0	;volatile
  2925     006B                     l916:
  2926     006B  0140               	movlb	0	; select bank0
  2927     006C  1098               	bcf	24,1	;volatile
  2928     006D                     l918:
  2929                           
  2930                           ;main.c: 70:         _delay((unsigned long)((250)*(1000000/4000.0)));
  2931     006D  3052               	movlw	82
  2932     006E  00F2               	movwf	??_main
  2933     006F  302A               	movlw	42
  2934     0070                     u47:
  2935     0070  0B89               	decfsz	9,f
  2936     0071  2870               	goto	u47
  2937     0072  0BF2               	decfsz	??_main,f
  2938     0073  2870               	goto	u47
  2939     0074  2863               	goto	l908
  2940     0075  3180  2814         	ljmp	start
  2941     0077                     __end_of_main:
  2942                           
  2943                           	psect	text1
  2944     0077                     __ptext1:	
  2945 ;; *************** function _SYSTEM_Initialize *****************
  2946 ;; Defined at:
  2947 ;;		line 37 in file "mcc_generated_files/system/src/system.c"
  2948 ;; Parameters:    Size  Location     Type
  2949 ;;		None
  2950 ;; Auto vars:     Size  Location     Type
  2951 ;;		None
  2952 ;; Return value:  Size  Location     Type
  2953 ;;                  1    wreg      void 
  2954 ;; Registers used:
  2955 ;;		wreg, status,2, status,0, pclath, cstack
  2956 ;; Tracked objects:
  2957 ;;		On entry : 0/0
  2958 ;;		On exit  : 0/0
  2959 ;;		Unchanged: 0/0
  2960 ;; Data sizes:     COMMON   BANK0   BANK1   BANK2   BANK3   BANK4   BANK5   BANK6   BANK7   BANK8   BANK9  BANK10  BANK1
      +1  BANK12  BANK13  BANK14  BANK15  BANK16  BANK17  BANK18  BANK19  BANK20  BANK21  BANK22  BANK23  BANK24  BANK25
  2961 ;;      Params:         0       0       0       0       0       0       0       0       0       0       0       0       
      +0       0       0       0       0       0       0       0       0       0       0       0       0       0       0
  2962 ;;      Locals:         0       0       0       0       0       0       0       0       0       0       0       0       
      +0       0       0       0       0       0       0       0       0       0       0       0       0       0       0
  2963 ;;      Temps:          0       0       0       0       0       0       0       0       0       0       0       0       
      +0       0       0       0       0       0       0       0       0       0       0       0       0       0       0
  2964 ;;      Totals:         0       0       0       0       0       0       0       0       0       0       0       0       
      +0       0       0       0       0       0       0       0       0       0       0       0       0       0       0
  2965 ;;Total ram usage:        0 bytes
  2966 ;; Hardware stack levels used: 1
  2967 ;; Hardware stack levels required when called: 4
  2968 ;; This function calls:
  2969 ;;		_CLOCK_Initialize
  2970 ;;		_INTERRUPT_Initialize
  2971 ;;		_PIN_MANAGER_Initialize
  2972 ;;		_WDT_Initialize
  2973 ;; This function is called by:
  2974 ;;		_main
  2975 ;; This function uses a non-reentrant model
  2976 ;;
  2977                           
  2978     0077                     _SYSTEM_Initialize:	
  2979                           ;psect for function _SYSTEM_Initialize
  2980                           
  2981     0077                     l898:	
  2982                           ;incstack = 0
  2983                           ; Regs used in _SYSTEM_Initialize: [wreg+status,2+status,0+pclath+cstack]
  2984                           
  2985                           
  2986                           ;mcc_generated_files/system/src/system.c: 39:     CLOCK_Initialize();
  2987     0077  3180  208F  3180   	fcall	_CLOCK_Initialize
  2988     007A                     l900:
  2989                           
  2990                           ;mcc_generated_files/system/src/system.c: 40:     PIN_MANAGER_Initialize();
  2991     007A  3180  201A  3180   	fcall	_PIN_MANAGER_Initialize
  2992     007D                     l902:
  2993                           
  2994                           ;mcc_generated_files/system/src/system.c: 41:     WDT_Initialize();
  2995     007D  3180  209D  3180   	fcall	_WDT_Initialize
  2996     0080                     l904:
  2997                           
  2998                           ;mcc_generated_files/system/src/system.c: 42:     INTERRUPT_Initialize();
  2999     0080  3180  2084  3180   	fcall	_INTERRUPT_Initialize
  3000     0083                     l16:
  3001     0083  0008               	return
  3002     0084                     __end_of_SYSTEM_Initialize:
  3003                           
  3004                           	psect	text2
  3005     009D                     __ptext2:	
  3006 ;; *************** function _WDT_Initialize *****************
  3007 ;; Defined at:
  3008 ;;		line 36 in file "mcc_generated_files/system/src/watchdog.c"
  3009 ;; Parameters:    Size  Location     Type
  3010 ;;		None
  3011 ;; Auto vars:     Size  Location     Type
  3012 ;;		None
  3013 ;; Return value:  Size  Location     Type
  3014 ;;                  1    wreg      void 
  3015 ;; Registers used:
  3016 ;;		wreg
  3017 ;; Tracked objects:
  3018 ;;		On entry : 0/0
  3019 ;;		On exit  : 0/0
  3020 ;;		Unchanged: 0/0
  3021 ;; Data sizes:     COMMON   BANK0   BANK1   BANK2   BANK3   BANK4   BANK5   BANK6   BANK7   BANK8   BANK9  BANK10  BANK1
      +1  BANK12  BANK13  BANK14  BANK15  BANK16  BANK17  BANK18  BANK19  BANK20  BANK21  BANK22  BANK23  BANK24  BANK25
  3022 ;;      Params:         0       0       0       0       0       0       0       0       0       0       0       0       
      +0       0       0       0       0       0       0       0       0       0       0       0       0       0       0
  3023 ;;      Locals:         0       0       0       0       0       0       0       0       0       0       0       0       
      +0       0       0       0       0       0       0       0       0       0       0       0       0       0       0
  3024 ;;      Temps:          0       0       0       0       0       0       0       0       0       0       0       0       
      +0       0       0       0       0       0       0       0       0       0       0       0       0       0       0
  3025 ;;      Totals:         0       0       0       0       0       0       0       0       0       0       0       0       
      +0       0       0       0       0       0       0       0       0       0       0       0       0       0       0
  3026 ;;Total ram usage:        0 bytes
  3027 ;; Hardware stack levels used: 1
  3028 ;; Hardware stack levels required when called: 2
  3029 ;; This function calls:
  3030 ;;		Nothing
  3031 ;; This function is called by:
  3032 ;;		_SYSTEM_Initialize
  3033 ;; This function uses a non-reentrant model
  3034 ;;
  3035                           
  3036     009D                     _WDT_Initialize:	
  3037                           ;psect for function _WDT_Initialize
  3038                           
  3039     009D                     l806:	
  3040                           ;incstack = 0
  3041                           ; Regs used in _WDT_Initialize: [wreg]
  3042                           
  3043                           
  3044                           ;mcc_generated_files/system/src/watchdog.c: 39:     WDTCON = 0x1B;
  3045     009D  301B               	movlw	27
  3046     009E  0143               	movlb	3	; select bank3
  3047     009F  008C               	movwf	12	;volatile
  3048     00A0                     l5:
  3049     00A0  0008               	return
  3050     00A1                     __end_of_WDT_Initialize:
  3051                           
  3052                           	psect	text3
  3053     001A                     __ptext3:	
  3054 ;; *************** function _PIN_MANAGER_Initialize *****************
  3055 ;; Defined at:
  3056 ;;		line 38 in file "mcc_generated_files/system/src/pins.c"
  3057 ;; Parameters:    Size  Location     Type
  3058 ;;		None
  3059 ;; Auto vars:     Size  Location     Type
  3060 ;;		None
  3061 ;; Return value:  Size  Location     Type
  3062 ;;                  1    wreg      void 
  3063 ;; Registers used:
  3064 ;;		wreg, status,2
  3065 ;; Tracked objects:
  3066 ;;		On entry : 0/0
  3067 ;;		On exit  : 0/0
  3068 ;;		Unchanged: 0/0
  3069 ;; Data sizes:     COMMON   BANK0   BANK1   BANK2   BANK3   BANK4   BANK5   BANK6   BANK7   BANK8   BANK9  BANK10  BANK1
      +1  BANK12  BANK13  BANK14  BANK15  BANK16  BANK17  BANK18  BANK19  BANK20  BANK21  BANK22  BANK23  BANK24  BANK25
  3070 ;;      Params:         0       0       0       0       0       0       0       0       0       0       0       0       
      +0       0       0       0       0       0       0       0       0       0       0       0       0       0       0
  3071 ;;      Locals:         0       0       0       0       0       0       0       0       0       0       0       0       
      +0       0       0       0       0       0       0       0       0       0       0       0       0       0       0
  3072 ;;      Temps:          0       0       0       0       0       0       0       0       0       0       0       0       
      +0       0       0       0       0       0       0       0       0       0       0       0       0       0       0
  3073 ;;      Totals:         0       0       0       0       0       0       0       0       0       0       0       0       
      +0       0       0       0       0       0       0       0       0       0       0       0       0       0       0
  3074 ;;Total ram usage:        0 bytes
  3075 ;; Hardware stack levels used: 1
  3076 ;; Hardware stack levels required when called: 2
  3077 ;; This function calls:
  3078 ;;		Nothing
  3079 ;; This function is called by:
  3080 ;;		_SYSTEM_Initialize
  3081 ;; This function uses a non-reentrant model
  3082 ;;
  3083                           
  3084     001A                     _PIN_MANAGER_Initialize:	
  3085                           ;psect for function _PIN_MANAGER_Initialize
  3086                           
  3087     001A                     l810:	
  3088                           ;incstack = 0
  3089                           ; Regs used in _PIN_MANAGER_Initialize: [wreg+status,2]
  3090                           
  3091                           
  3092                           ;mcc_generated_files/system/src/pins.c: 43:     LATA = 0x0;
  3093     001A  0140               	movlb	0	; select bank0
  3094     001B  0198               	clrf	24	;volatile
  3095                           
  3096                           ;mcc_generated_files/system/src/pins.c: 44:     LATB = 0x0;
  3097     001C  0199               	clrf	25	;volatile
  3098                           
  3099                           ;mcc_generated_files/system/src/pins.c: 45:     LATC = 0x0;
  3100     001D  019A               	clrf	26	;volatile
  3101                           
  3102                           ;mcc_generated_files/system/src/pins.c: 46:     LATD = 0x0;
  3103     001E  019B               	clrf	27	;volatile
  3104                           
  3105                           ;mcc_generated_files/system/src/pins.c: 47:     LATE = 0x0;
  3106     001F  019C               	clrf	28	;volatile
  3107     0020                     l812:
  3108                           
  3109                           ;mcc_generated_files/system/src/pins.c: 52:     TRISA = 0xFD;
  3110     0020  30FD               	movlw	253
  3111     0021  0092               	movwf	18	;volatile
  3112     0022                     l814:
  3113                           
  3114                           ;mcc_generated_files/system/src/pins.c: 53:     TRISB = 0xFF;
  3115     0022  30FF               	movlw	255
  3116     0023  0093               	movwf	19	;volatile
  3117     0024                     l816:
  3118                           
  3119                           ;mcc_generated_files/system/src/pins.c: 54:     TRISC = 0xFF;
  3120     0024  30FF               	movlw	255
  3121     0025  0094               	movwf	20	;volatile
  3122     0026                     l818:
  3123                           
  3124                           ;mcc_generated_files/system/src/pins.c: 55:     TRISD = 0xFF;
  3125     0026  30FF               	movlw	255
  3126     0027  0095               	movwf	21	;volatile
  3127     0028                     l820:
  3128                           
  3129                           ;mcc_generated_files/system/src/pins.c: 56:     TRISE = 0xF;
  3130     0028  300F               	movlw	15
  3131     0029  0096               	movwf	22	;volatile
  3132     002A                     l822:
  3133                           
  3134                           ;mcc_generated_files/system/src/pins.c: 61:     ANSELA = 0xFD;
  3135     002A  30FD               	movlw	253
  3136     002B  017D               	movlb	61	; select bank61
  3137     002C  008C               	movwf	12	;volatile
  3138     002D                     l824:
  3139                           
  3140                           ;mcc_generated_files/system/src/pins.c: 62:     ANSELB = 0xFF;
  3141     002D  30FF               	movlw	255
  3142     002E  0096               	movwf	22	;volatile
  3143     002F                     l826:
  3144                           
  3145                           ;mcc_generated_files/system/src/pins.c: 63:     ANSELC = 0xFF;
  3146     002F  30FF               	movlw	255
  3147     0030  00A0               	movwf	32	;volatile
  3148     0031                     l828:
  3149                           
  3150                           ;mcc_generated_files/system/src/pins.c: 64:     ANSELD = 0xFF;
  3151     0031  30FF               	movlw	255
  3152     0032  00AA               	movwf	42	;volatile
  3153     0033                     l830:
  3154                           
  3155                           ;mcc_generated_files/system/src/pins.c: 65:     ANSELE = 0x7;
  3156     0033  3007               	movlw	7
  3157     0034  00B4               	movwf	52	;volatile
  3158                           
  3159                           ;mcc_generated_files/system/src/pins.c: 70:     WPUA = 0x0;
  3160     0035  018D               	clrf	13	;volatile
  3161                           
  3162                           ;mcc_generated_files/system/src/pins.c: 71:     WPUB = 0x0;
  3163     0036  0197               	clrf	23	;volatile
  3164                           
  3165                           ;mcc_generated_files/system/src/pins.c: 72:     WPUC = 0x0;
  3166     0037  01A1               	clrf	33	;volatile
  3167                           
  3168                           ;mcc_generated_files/system/src/pins.c: 73:     WPUD = 0x0;
  3169     0038  01AB               	clrf	43	;volatile
  3170                           
  3171                           ;mcc_generated_files/system/src/pins.c: 74:     WPUE = 0x0;
  3172     0039  01B5               	clrf	53	;volatile
  3173                           
  3174                           ;mcc_generated_files/system/src/pins.c: 80:     ODCONA = 0x0;
  3175     003A  018E               	clrf	14	;volatile
  3176                           
  3177                           ;mcc_generated_files/system/src/pins.c: 81:     ODCONB = 0x0;
  3178     003B  0198               	clrf	24	;volatile
  3179                           
  3180                           ;mcc_generated_files/system/src/pins.c: 82:     ODCONC = 0x0;
  3181     003C  01A2               	clrf	34	;volatile
  3182                           
  3183                           ;mcc_generated_files/system/src/pins.c: 83:     ODCOND = 0x0;
  3184     003D  01AC               	clrf	44	;volatile
  3185                           
  3186                           ;mcc_generated_files/system/src/pins.c: 84:     ODCONE = 0x0;
  3187     003E  01B6               	clrf	54	;volatile
  3188     003F                     l832:
  3189                           
  3190                           ;mcc_generated_files/system/src/pins.c: 88:     SLRCONA = 0xFF;
  3191     003F  30FF               	movlw	255
  3192     0040  008F               	movwf	15	;volatile
  3193     0041                     l834:
  3194                           
  3195                           ;mcc_generated_files/system/src/pins.c: 89:     SLRCONB = 0xFF;
  3196     0041  30FF               	movlw	255
  3197     0042  0099               	movwf	25	;volatile
  3198     0043                     l836:
  3199                           
  3200                           ;mcc_generated_files/system/src/pins.c: 90:     SLRCONC = 0xFF;
  3201     0043  30FF               	movlw	255
  3202     0044  00A3               	movwf	35	;volatile
  3203     0045                     l838:
  3204                           
  3205                           ;mcc_generated_files/system/src/pins.c: 91:     SLRCOND = 0xFF;
  3206     0045  30FF               	movlw	255
  3207     0046  00AD               	movwf	45	;volatile
  3208     0047                     l840:
  3209                           
  3210                           ;mcc_generated_files/system/src/pins.c: 92:     SLRCONE = 0x7;
  3211     0047  3007               	movlw	7
  3212     0048  00B7               	movwf	55	;volatile
  3213     0049                     l842:
  3214                           
  3215                           ;mcc_generated_files/system/src/pins.c: 96:     INLVLA = 0xFF;
  3216     0049  30FF               	movlw	255
  3217     004A  0090               	movwf	16	;volatile
  3218     004B                     l844:
  3219                           
  3220                           ;mcc_generated_files/system/src/pins.c: 97:     INLVLB = 0xFF;
  3221     004B  30FF               	movlw	255
  3222     004C  009A               	movwf	26	;volatile
  3223     004D                     l846:
  3224                           
  3225                           ;mcc_generated_files/system/src/pins.c: 98:     INLVLC = 0xFF;
  3226     004D  30FF               	movlw	255
  3227     004E  00A4               	movwf	36	;volatile
  3228     004F                     l848:
  3229                           
  3230                           ;mcc_generated_files/system/src/pins.c: 99:     INLVLD = 0xFF;
  3231     004F  30FF               	movlw	255
  3232     0050  00AE               	movwf	46	;volatile
  3233     0051                     l850:
  3234                           
  3235                           ;mcc_generated_files/system/src/pins.c: 100:     INLVLE = 0xF;
  3236     0051  300F               	movlw	15
  3237     0052  00B8               	movwf	56	;volatile
  3238                           
  3239                           ;mcc_generated_files/system/src/pins.c: 113:     IOCAP = 0x0;
  3240     0053  0191               	clrf	17	;volatile
  3241                           
  3242                           ;mcc_generated_files/system/src/pins.c: 114:     IOCAN = 0x0;
  3243     0054  0192               	clrf	18	;volatile
  3244                           
  3245                           ;mcc_generated_files/system/src/pins.c: 115:     IOCAF = 0x0;
  3246     0055  0193               	clrf	19	;volatile
  3247                           
  3248                           ;mcc_generated_files/system/src/pins.c: 116:     IOCBP = 0x0;
  3249     0056  019B               	clrf	27	;volatile
  3250                           
  3251                           ;mcc_generated_files/system/src/pins.c: 117:     IOCBN = 0x0;
  3252     0057  019C               	clrf	28	;volatile
  3253                           
  3254                           ;mcc_generated_files/system/src/pins.c: 118:     IOCBF = 0x0;
  3255     0058  019D               	clrf	29	;volatile
  3256                           
  3257                           ;mcc_generated_files/system/src/pins.c: 119:     IOCCP = 0x0;
  3258     0059  01A5               	clrf	37	;volatile
  3259                           
  3260                           ;mcc_generated_files/system/src/pins.c: 120:     IOCCN = 0x0;
  3261     005A  01A6               	clrf	38	;volatile
  3262                           
  3263                           ;mcc_generated_files/system/src/pins.c: 121:     IOCCF = 0x0;
  3264     005B  01A7               	clrf	39	;volatile
  3265                           
  3266                           ;mcc_generated_files/system/src/pins.c: 122:     IOCEP = 0x0;
  3267     005C  01B9               	clrf	57	;volatile
  3268                           
  3269                           ;mcc_generated_files/system/src/pins.c: 123:     IOCEN = 0x0;
  3270     005D  01BA               	clrf	58	;volatile
  3271                           
  3272                           ;mcc_generated_files/system/src/pins.c: 124:     IOCEF = 0x0;
  3273     005E  01BB               	clrf	59	;volatile
  3274     005F                     l152:
  3275     005F  0008               	return
  3276     0060                     __end_of_PIN_MANAGER_Initialize:
  3277                           
  3278                           	psect	text4
  3279     0084                     __ptext4:	
  3280 ;; *************** function _INTERRUPT_Initialize *****************
  3281 ;; Defined at:
  3282 ;;		line 40 in file "mcc_generated_files/system/src/interrupt.c"
  3283 ;; Parameters:    Size  Location     Type
  3284 ;;		None
  3285 ;; Auto vars:     Size  Location     Type
  3286 ;;		None
  3287 ;; Return value:  Size  Location     Type
  3288 ;;                  1    wreg      void 
  3289 ;; Registers used:
  3290 ;;		wreg, status,2, status,0, pclath, cstack
  3291 ;; Tracked objects:
  3292 ;;		On entry : 0/0
  3293 ;;		On exit  : 0/0
  3294 ;;		Unchanged: 0/0
  3295 ;; Data sizes:     COMMON   BANK0   BANK1   BANK2   BANK3   BANK4   BANK5   BANK6   BANK7   BANK8   BANK9  BANK10  BANK1
      +1  BANK12  BANK13  BANK14  BANK15  BANK16  BANK17  BANK18  BANK19  BANK20  BANK21  BANK22  BANK23  BANK24  BANK25
  3296 ;;      Params:         0       0       0       0       0       0       0       0       0       0       0       0       
      +0       0       0       0       0       0       0       0       0       0       0       0       0       0       0
  3297 ;;      Locals:         0       0       0       0       0       0       0       0       0       0       0       0       
      +0       0       0       0       0       0       0       0       0       0       0       0       0       0       0
  3298 ;;      Temps:          0       0       0       0       0       0       0       0       0       0       0       0       
      +0       0       0       0       0       0       0       0       0       0       0       0       0       0       0
  3299 ;;      Totals:         0       0       0       0       0       0       0       0       0       0       0       0       
      +0       0       0       0       0       0       0       0       0       0       0       0       0       0       0
  3300 ;;Total ram usage:        0 bytes
  3301 ;; Hardware stack levels used: 1
  3302 ;; Hardware stack levels required when called: 3
  3303 ;; This function calls:
  3304 ;;		_INT_SetInterruptHandler
  3305 ;; This function is called by:
  3306 ;;		_SYSTEM_Initialize
  3307 ;; This function uses a non-reentrant model
  3308 ;;
  3309                           
  3310     0084                     _INTERRUPT_Initialize:	
  3311                           ;psect for function _INTERRUPT_Initialize
  3312                           
  3313     0084                     l894:	
  3314                           ;incstack = 0
  3315                           ; Regs used in _INTERRUPT_Initialize: [wreg+status,2+status,0+pclath+cstack]
  3316                           
  3317                           
  3318                           ;mcc_generated_files/system/src/interrupt.c: 44:     (PIR0bits.INTF = 0);
  3319     0084  0141               	movlb	1	; select bank1
  3320     0085  100C               	bcf	12,0	;volatile
  3321                           
  3322                           ;mcc_generated_files/system/src/interrupt.c: 45:     (INTCONbits.INTEDG = 1);
  3323     0086  140B               	bsf	11,0	;volatile
  3324     0087                     l896:
  3325                           
  3326                           ;mcc_generated_files/system/src/interrupt.c: 47:     INT_SetInterruptHandler(INT_Default
      +                          InterruptHandler);
  3327     0087  3000               	movlw	0
  3328     0088  00F0               	movwf	INT_SetInterruptHandler@InterruptHandler
  3329     0089  3000               	movlw	0
  3330     008A  00F1               	movwf	INT_SetInterruptHandler@InterruptHandler+1
  3331     008B  3180  2098  3180   	fcall	_INT_SetInterruptHandler
  3332     008E                     l35:
  3333     008E  0008               	return
  3334     008F                     __end_of_INTERRUPT_Initialize:
  3335                           
  3336                           	psect	text5
  3337     0098                     __ptext5:	
  3338 ;; *************** function _INT_SetInterruptHandler *****************
  3339 ;; Defined at:
  3340 ;;		line 90 in file "mcc_generated_files/system/src/interrupt.c"
  3341 ;; Parameters:    Size  Location     Type
  3342 ;;  InterruptHan    2    0[COMMON] PTR FTN()void 
  3343 ;;		 -> INT_DefaultInterruptHandler(1), 
  3344 ;; Auto vars:     Size  Location     Type
  3345 ;;		None
  3346 ;; Return value:  Size  Location     Type
  3347 ;;                  1    wreg      void 
  3348 ;; Registers used:
  3349 ;;		wreg
  3350 ;; Tracked objects:
  3351 ;;		On entry : 0/0
  3352 ;;		On exit  : 0/0
  3353 ;;		Unchanged: 0/0
  3354 ;; Data sizes:     COMMON   BANK0   BANK1   BANK2   BANK3   BANK4   BANK5   BANK6   BANK7   BANK8   BANK9  BANK10  BANK1
      +1  BANK12  BANK13  BANK14  BANK15  BANK16  BANK17  BANK18  BANK19  BANK20  BANK21  BANK22  BANK23  BANK24  BANK25
  3355 ;;      Params:         2       0       0       0       0       0       0       0       0       0       0       0       
      +0       0       0       0       0       0       0       0       0       0       0       0       0       0       0
  3356 ;;      Locals:         0       0       0       0       0       0       0       0       0       0       0       0       
      +0       0       0       0       0       0       0       0       0       0       0       0       0       0       0
  3357 ;;      Temps:          0       0       0       0       0       0       0       0       0       0       0       0       
      +0       0       0       0       0       0       0       0       0       0       0       0       0       0       0
  3358 ;;      Totals:         2       0       0       0       0       0       0       0       0       0       0       0       
      +0       0       0       0       0       0       0       0       0       0       0       0       0       0       0
  3359 ;;Total ram usage:        2 bytes
  3360 ;; Hardware stack levels used: 1
  3361 ;; Hardware stack levels required when called: 2
  3362 ;; This function calls:
  3363 ;;		Nothing
  3364 ;; This function is called by:
  3365 ;;		_INTERRUPT_Initialize
  3366 ;; This function uses a non-reentrant model
  3367 ;;
  3368                           
  3369     0098                     _INT_SetInterruptHandler:	
  3370                           ;psect for function _INT_SetInterruptHandler
  3371                           
  3372     0098                     l892:	
  3373                           ;incstack = 0
  3374                           ; Regs used in _INT_SetInterruptHandler: [wreg]
  3375                           
  3376                           
  3377                           ;mcc_generated_files/system/src/interrupt.c: 91:     INT_InterruptHandler = InterruptHan
      +                          dler;
  3378     0098  0871               	movf	INT_SetInterruptHandler@InterruptHandler+1,w
  3379     0099  00F4               	movwf	_INT_InterruptHandler+1
  3380     009A  0870               	movf	INT_SetInterruptHandler@InterruptHandler,w
  3381     009B  00F3               	movwf	_INT_InterruptHandler
  3382     009C                     l52:
  3383     009C  0008               	return
  3384     009D                     __end_of_INT_SetInterruptHandler:
  3385                           
  3386                           	psect	text6
  3387     008F                     __ptext6:	
  3388 ;; *************** function _CLOCK_Initialize *****************
  3389 ;; Defined at:
  3390 ;;		line 37 in file "mcc_generated_files/system/src/clock.c"
  3391 ;; Parameters:    Size  Location     Type
  3392 ;;		None
  3393 ;; Auto vars:     Size  Location     Type
  3394 ;;		None
  3395 ;; Return value:  Size  Location     Type
  3396 ;;                  1    wreg      void 
  3397 ;; Registers used:
  3398 ;;		status,2
  3399 ;; Tracked objects:
  3400 ;;		On entry : 0/0
  3401 ;;		On exit  : 0/0
  3402 ;;		Unchanged: 0/0
  3403 ;; Data sizes:     COMMON   BANK0   BANK1   BANK2   BANK3   BANK4   BANK5   BANK6   BANK7   BANK8   BANK9  BANK10  BANK1
      +1  BANK12  BANK13  BANK14  BANK15  BANK16  BANK17  BANK18  BANK19  BANK20  BANK21  BANK22  BANK23  BANK24  BANK25
  3404 ;;      Params:         0       0       0       0       0       0       0       0       0       0       0       0       
      +0       0       0       0       0       0       0       0       0       0       0       0       0       0       0
  3405 ;;      Locals:         0       0       0       0       0       0       0       0       0       0       0       0       
      +0       0       0       0       0       0       0       0       0       0       0       0       0       0       0
  3406 ;;      Temps:          0       0       0       0       0       0       0       0       0       0       0       0       
      +0       0       0       0       0       0       0       0       0       0       0       0       0       0       0
  3407 ;;      Totals:         0       0       0       0       0       0       0       0       0       0       0       0       
      +0       0       0       0       0       0       0       0       0       0       0       0       0       0       0
  3408 ;;Total ram usage:        0 bytes
  3409 ;; Hardware stack levels used: 1
  3410 ;; Hardware stack levels required when called: 2
  3411 ;; This function calls:
  3412 ;;		Nothing
  3413 ;; This function is called by:
  3414 ;;		_SYSTEM_Initialize
  3415 ;; This function uses a non-reentrant model
  3416 ;;
  3417                           
  3418     008F                     _CLOCK_Initialize:	
  3419                           ;psect for function _CLOCK_Initialize
  3420                           
  3421     008F                     l808:	
  3422                           ;incstack = 0
  3423                           ; Regs used in _CLOCK_Initialize: [status,2]
  3424                           
  3425                           
  3426                           ;mcc_generated_files/system/src/clock.c: 41:     OSCCON2 = 0x0;
  3427     008F  0144               	movlb	4	; select bank4
  3428     0090  018E               	clrf	14	;volatile
  3429                           
  3430                           ;mcc_generated_files/system/src/clock.c: 43:     OSCCON3 = 0x0;
  3431     0091  018F               	clrf	15	;volatile
  3432                           
  3433                           ;mcc_generated_files/system/src/clock.c: 45:     OSCEN = 0x0;
  3434     0092  0191               	clrf	17	;volatile
  3435                           
  3436                           ;mcc_generated_files/system/src/clock.c: 47:     OSCFRQ = 0x0;
  3437     0093  0193               	clrf	19	;volatile
  3438                           
  3439                           ;mcc_generated_files/system/src/clock.c: 49:     OSCSTAT = 0x0;
  3440     0094  0190               	clrf	16	;volatile
  3441                           
  3442                           ;mcc_generated_files/system/src/clock.c: 51:     OSCTUNE = 0x0;
  3443     0095  0192               	clrf	18	;volatile
  3444                           
  3445                           ;mcc_generated_files/system/src/clock.c: 53:     ACTCON = 0x0;
  3446     0096  0194               	clrf	20	;volatile
  3447     0097                     l172:
  3448     0097  0008               	return
  3449     0098                     __end_of_CLOCK_Initialize:
  3450                           
  3451                           	psect	intentry
  3452     0004                     __pintentry:	
  3453 ;; *************** function _INTERRUPT_InterruptManager *****************
  3454 ;; Defined at:
  3455 ;;		line 59 in file "mcc_generated_files/system/src/interrupt.c"
  3456 ;; Parameters:    Size  Location     Type
  3457 ;;		None
  3458 ;; Auto vars:     Size  Location     Type
  3459 ;;		None
  3460 ;; Return value:  Size  Location     Type
  3461 ;;                  1    wreg      void 
  3462 ;; Registers used:
  3463 ;;		status,2, status,0, pclath, cstack
  3464 ;; Tracked objects:
  3465 ;;		On entry : 0/0
  3466 ;;		On exit  : 0/0
  3467 ;;		Unchanged: 0/0
  3468 ;; Data sizes:     COMMON   BANK0   BANK1   BANK2   BANK3   BANK4   BANK5   BANK6   BANK7   BANK8   BANK9  BANK10  BANK1
      +1  BANK12  BANK13  BANK14  BANK15  BANK16  BANK17  BANK18  BANK19  BANK20  BANK21  BANK22  BANK23  BANK24  BANK25
  3469 ;;      Params:         0       0       0       0       0       0       0       0       0       0       0       0       
      +0       0       0       0       0       0       0       0       0       0       0       0       0       0       0
  3470 ;;      Locals:         0       0       0       0       0       0       0       0       0       0       0       0       
      +0       0       0       0       0       0       0       0       0       0       0       0       0       0       0
  3471 ;;      Temps:          0       0       0       0       0       0       0       0       0       0       0       0       
      +0       0       0       0       0       0       0       0       0       0       0       0       0       0       0
  3472 ;;      Totals:         0       0       0       0       0       0       0       0       0       0       0       0       
      +0       0       0       0       0       0       0       0       0       0       0       0       0       0       0
  3473 ;;Total ram usage:        0 bytes
  3474 ;; Hardware stack levels used: 1
  3475 ;; Hardware stack levels required when called: 1
  3476 ;; This function calls:
  3477 ;;		_PIN_MANAGER_IOC
  3478 ;; This function is called by:
  3479 ;;		Interrupt level 1
  3480 ;; This function uses a non-reentrant model
  3481 ;;
  3482                           
  3483     0004                     _INTERRUPT_InterruptManager:
  3484                           
  3485                           ;incstack = 0
  3486     0004  147E               	bsf	int$flags,0	;set compiler interrupt flag (level 1)
  3487                           
  3488                           ; Regs used in _INTERRUPT_InterruptManager: [status,2+status,0+pclath+cstack]
  3489     0005  3180               	pagesel	$
  3490     0006                     i1l864:
  3491                           
  3492                           ;mcc_generated_files/system/src/interrupt.c: 62:     if(PIE0bits.IOCIE == 1 && PIR0bits.
      +                          IOCIF == 1)
  3493     0006  0141               	movlb	1	; select bank1
  3494     0007  1E16               	btfss	22,4	;volatile
  3495     0008  280A               	goto	u1_21
  3496     0009  280B               	goto	u1_20
  3497     000A                     u1_21:
  3498     000A  2812               	goto	i1l42
  3499     000B                     u1_20:
  3500     000B                     i1l866:
  3501     000B  1E0C               	btfss	12,4	;volatile
  3502     000C  280E               	goto	u2_21
  3503     000D  280F               	goto	u2_20
  3504     000E                     u2_21:
  3505     000E  2812               	goto	i1l42
  3506     000F                     u2_20:
  3507     000F                     i1l868:
  3508                           
  3509                           ;mcc_generated_files/system/src/interrupt.c: 63:     {;mcc_generated_files/system/src/in
      +                          terrupt.c: 64:         PIN_MANAGER_IOC();
  3510     000F  3180  20A1  3180   	fcall	_PIN_MANAGER_IOC
  3511     0012                     i1l42:	
  3512                           ;mcc_generated_files/system/src/interrupt.c: 65:     }
  3513                           
  3514     0012  107E               	bcf	int$flags,0	;clear compiler interrupt flag (level 1)
  3515     0013  0009               	retfie
  3516     0014                     __end_of_INTERRUPT_InterruptManager:
  3517                           
  3518                           	psect	text8
  3519     00A1                     __ptext8:	
  3520 ;; *************** function _PIN_MANAGER_IOC *****************
  3521 ;; Defined at:
  3522 ;;		line 129 in file "mcc_generated_files/system/src/pins.c"
  3523 ;; Parameters:    Size  Location     Type
  3524 ;;		None
  3525 ;; Auto vars:     Size  Location     Type
  3526 ;;		None
  3527 ;; Return value:  Size  Location     Type
  3528 ;;                  1    wreg      void 
  3529 ;; Registers used:
  3530 ;;		None
  3531 ;; Tracked objects:
  3532 ;;		On entry : 0/0
  3533 ;;		On exit  : 0/0
  3534 ;;		Unchanged: 0/0
  3535 ;; Data sizes:     COMMON   BANK0   BANK1   BANK2   BANK3   BANK4   BANK5   BANK6   BANK7   BANK8   BANK9  BANK10  BANK1
      +1  BANK12  BANK13  BANK14  BANK15  BANK16  BANK17  BANK18  BANK19  BANK20  BANK21  BANK22  BANK23  BANK24  BANK25
  3536 ;;      Params:         0       0       0       0       0       0       0       0       0       0       0       0       
      +0       0       0       0       0       0       0       0       0       0       0       0       0       0       0
  3537 ;;      Locals:         0       0       0       0       0       0       0       0       0       0       0       0       
      +0       0       0       0       0       0       0       0       0       0       0       0       0       0       0
  3538 ;;      Temps:          0       0       0       0       0       0       0       0       0       0       0       0       
      +0       0       0       0       0       0       0       0       0       0       0       0       0       0       0
  3539 ;;      Totals:         0       0       0       0       0       0       0       0       0       0       0       0       
      +0       0       0       0       0       0       0       0       0       0       0       0       0       0       0
  3540 ;;Total ram usage:        0 bytes
  3541 ;; Hardware stack levels used: 1
  3542 ;; This function calls:
  3543 ;;		Nothing
  3544 ;; This function is called by:
  3545 ;;		_INTERRUPT_InterruptManager
  3546 ;; This function uses a non-reentrant model
  3547 ;;
  3548                           
  3549     00A1                     _PIN_MANAGER_IOC:	
  3550                           ;psect for function _PIN_MANAGER_IOC
  3551                           
  3552     00A1                     i1l155:	
  3553                           ;incstack = 0
  3554                           ; Regs used in _PIN_MANAGER_IOC: []
  3555                           
  3556     00A1  0008               	return
  3557     00A2                     __end_of_PIN_MANAGER_IOC:
  3558     007E                     btemp	set	126	;btemp
  3559     007E                     int$flags	set	126
  3560     007E                     wtemp0	set	126
  3561                           
  3562                           	psect	config
  3563                           
  3564                           ;Config register CONFIG1 @ 0x8007
  3565                           ;	External Oscillator Selection bits
  3566                           ;	FEXTOSC = OFF, Oscillator not enabled
  3567                           ;	Reset Oscillator Selection bits
  3568                           ;	RSTOSC = HFINTOSC_32MHz, HFINTOSC (32 MHz)
  3569                           ;	Clock Out Enable bit
  3570                           ;	CLKOUTEN = ON, CLKOUT function is enabled; FOSC/4 clock appears at OSC2
  3571                           ;	VDD Range Analog Calibration Selection bit
  3572                           ;	VDDAR = HI, Internal analog systems are calibrated for operation between VDD = 2.3 - 5
      +                          .5V
  3573     8007                     	org	32775
  3574     8007  3E8C               	dw	16012
  3575                           
  3576                           ;Config register CONFIG2 @ 0x8008
  3577                           ;	Master Clear Enable bit
  3578                           ;	MCLRE = EXTMCLR, If LVP = 0, MCLR pin is MCLR; If LVP = 1, RA3 pin function is MCLR
  3579                           ;	Power-up Timer Selection bits
  3580                           ;	PWRTS = PWRT_OFF, PWRT is disabled
  3581                           ;	WDT Operating Mode bits
  3582                           ;	WDTE = SWDTEN, WDT enabled/disabled by SEN bit
  3583                           ;	Brown-out Reset Enable bits
  3584                           ;	BOREN = OFF, Brown-out reset disabled
  3585                           ;	DAC Buffer Automatic Range Select Enable bit
  3586                           ;	DACAUTOEN = OFF, DAC Buffer reference range is determined by the REFRNG bit
  3587                           ;	Brown-out Reset Voltage Selection bit
  3588                           ;	BORV = LO, Brown-out Reset Voltage (VBOR) set to 1.9V
  3589                           ;	ZCD Disable bit
  3590                           ;	ZCD = OFF, ZCD module is disabled; ZCD can be enabled by setting the ZCDSEN bit of ZCD
      +                          CON
  3591                           ;	PPSLOCKED One-Way Set Enable bit
  3592                           ;	PPS1WAY = ON, The PPSLOCKED bit can be cleared and set only once after an unlocking se
      +                          quence is executed; once PPSLOCKED is set, all future changes to PPS registers are preve
      +                          nted
  3593                           ;	Stack Overflow/Underflow Reset Enable bit
  3594                           ;	STVREN = ON, Stack Overflow or Underflow will cause a reset
  3595     8008                     	org	32776
  3596     8008  3F2F               	dw	16175
  3597                           
  3598                           ;Config register CONFIG4 @ 0x800A
  3599                           ;	Boot Block Size Selection bits
  3600                           ;	BBSIZE = BB512, 512 words boot block size
  3601                           ;	Boot Block Enable bit
  3602                           ;	BBEN = OFF, Boot Block disabled
  3603                           ;	Storage Area Flash (SAF) Enable bit
  3604                           ;	SAFEN = OFF, SAF disabled
  3605                           ;	Application Block Write Protection bit
  3606                           ;	WRTAPP = OFF, Application Block is NOT write protected
  3607                           ;	Boot Block Write Protection bit
  3608                           ;	WRTB = OFF, Boot Block is NOT write protected
  3609                           ;	Configuration Register Write Protection bit
  3610                           ;	WRTC = OFF, Configuration Register is NOT write protected
  3611                           ;	Data EEPROM Write-Protection bit
  3612                           ;	WRTD = OFF, Data EEPROM is NOT write-protected
  3613                           ;	Storage Area Flash (SAF) Write Protection bit
  3614                           ;	WRTSAF = OFF, SAF is NOT write protected
  3615                           ;	Low Voltage Programming Enable bit
  3616                           ;	LVP = ON, Low Voltage programming enabled. MCLR/Vpp pin function is MCLR. MCLRE Config
      +                          uration bit is ignored
  3617     800A                     	org	32778
  3618     800A  3FFF               	dw	16383
  3619                           
  3620                           ;Config register CONFIG5 @ 0x800B
  3621                           ;	Program Flash Memory Code Protection bit
  3622                           ;	CP = OFF, Program Flash Memory code protection is disabled
  3623                           ;	Data EEPROM Code Protection bit
  3624                           ;	CPD = OFF, EEPROM code protection is disabled
  3625     800B                     	org	32779
  3626     800B  3FFF               	dw	16383

Data Sizes:
    Strings     0
    Constant    0
    Data        0
    BSS         0
    Persistent  34
    Stack       0

Auto Spaces:
    Space          Size  Autos    Used
    COMMON           14      3       5
    BANK0            80      0       0
    BANK1            80      0       0
    BANK2            80      0       0
    BANK3            80      0       0
    BANK4            80      0       0
    BANK5            80      0       0
    BANK6            80      0       0
    BANK7            80      0       0
    BANK8            80      0       0
    BANK9            80      0       0
    BANK10           80      0       0
    BANK11           80      0       0
    BANK12           80      0       0
    BANK13           80      0       0
    BANK14           80      0       0
    BANK15           80      0       0
    BANK16           80      0       0
    BANK17           80      0       0
    BANK18           80      0       0
    BANK19           80      0       0
    BANK20           80      0       0
    BANK21           80      0       0
    BANK22           80      0       0
    BANK23           80      0       0
    BANK24           80      0       0
    BANK25           32      0       0

Pointer List with Targets:

    INT_SetInterruptHandler@InterruptHandler	PTR FTN()void  size(2) Largest target is 1
		 -> INT_DefaultInterruptHandler(), 

    INT_InterruptHandler	PTR FTN()void  size(2) Largest target is 1
		 -> NULL(), INT_DefaultInterruptHandler(), 


Critical Paths under _main in COMMON

    _INTERRUPT_Initialize->_INT_SetInterruptHandler

Critical Paths under _INTERRUPT_InterruptManager in COMMON

    None.

Critical Paths under _main in BANK0

    None.

Critical Paths under _INTERRUPT_InterruptManager in BANK0

    None.

Critical Paths under _main in BANK1

    None.

Critical Paths under _INTERRUPT_InterruptManager in BANK1

    None.

Critical Paths under _main in BANK2

    None.

Critical Paths under _INTERRUPT_InterruptManager in BANK2

    None.

Critical Paths under _main in BANK3

    None.

Critical Paths under _INTERRUPT_InterruptManager in BANK3

    None.

Critical Paths under _main in BANK4

    None.

Critical Paths under _INTERRUPT_InterruptManager in BANK4

    None.

Critical Paths under _main in BANK5

    None.

Critical Paths under _INTERRUPT_InterruptManager in BANK5

    None.

Critical Paths under _main in BANK6

    None.

Critical Paths under _INTERRUPT_InterruptManager in BANK6

    None.

Critical Paths under _main in BANK7

    None.

Critical Paths under _INTERRUPT_InterruptManager in BANK7

    None.

Critical Paths under _main in BANK8

    None.

Critical Paths under _INTERRUPT_InterruptManager in BANK8

    None.

Critical Paths under _main in BANK9

    None.

Critical Paths under _INTERRUPT_InterruptManager in BANK9

    None.

Critical Paths under _main in BANK10

    None.

Critical Paths under _INTERRUPT_InterruptManager in BANK10

    None.

Critical Paths under _main in BANK11

    None.

Critical Paths under _INTERRUPT_InterruptManager in BANK11

    None.

Critical Paths under _main in BANK12

    None.

Critical Paths under _INTERRUPT_InterruptManager in BANK12

    None.

Critical Paths under _main in BANK13

    None.

Critical Paths under _INTERRUPT_InterruptManager in BANK13

    None.

Critical Paths under _main in BANK14

    None.

Critical Paths under _INTERRUPT_InterruptManager in BANK14

    None.

Critical Paths under _main in BANK15

    None.

Critical Paths under _INTERRUPT_InterruptManager in BANK15

    None.

Critical Paths under _main in BANK16

    None.

Critical Paths under _INTERRUPT_InterruptManager in BANK16

    None.

Critical Paths under _main in BANK17

    None.

Critical Paths under _INTERRUPT_InterruptManager in BANK17

    None.

Critical Paths under _main in BANK18

    None.

Critical Paths under _INTERRUPT_InterruptManager in BANK18

    None.

Critical Paths under _main in BANK19

    None.

Critical Paths under _INTERRUPT_InterruptManager in BANK19

    None.

Critical Paths under _main in BANK20

    None.

Critical Paths under _INTERRUPT_InterruptManager in BANK20

    None.

Critical Paths under _main in BANK21

    None.

Critical Paths under _INTERRUPT_InterruptManager in BANK21

    None.

Critical Paths under _main in BANK22

    None.

Critical Paths under _INTERRUPT_InterruptManager in BANK22

    None.

Critical Paths under _main in BANK23

    None.

Critical Paths under _INTERRUPT_InterruptManager in BANK23

    None.

Critical Paths under _main in BANK24

    None.

Critical Paths under _INTERRUPT_InterruptManager in BANK24

    None.

Critical Paths under _main in BANK25

    None.

Critical Paths under _INTERRUPT_InterruptManager in BANK25

    None.

Call Graph Tables:

 ---------------------------------------------------------------------------------
 (Depth) Function   	        Calls       Base Space   Used Autos Params    Refs
 ---------------------------------------------------------------------------------
 (0) _main                                                 1     1      0      98
                                              2 COMMON     1     1      0
                  _SYSTEM_Initialize
 ---------------------------------------------------------------------------------
 (1) _SYSTEM_Initialize                                    0     0      0      98
                   _CLOCK_Initialize
               _INTERRUPT_Initialize
             _PIN_MANAGER_Initialize
                     _WDT_Initialize
 ---------------------------------------------------------------------------------
 (2) _WDT_Initialize                                       0     0      0       0
 ---------------------------------------------------------------------------------
 (2) _PIN_MANAGER_Initialize                               0     0      0       0
 ---------------------------------------------------------------------------------
 (2) _INTERRUPT_Initialize                                 0     0      0      98
            _INT_SetInterruptHandler
 ---------------------------------------------------------------------------------
 (3) _INT_SetInterruptHandler                              2     0      2      98
                                              0 COMMON     2     0      2
 ---------------------------------------------------------------------------------
 (2) _CLOCK_Initialize                                     0     0      0       0
 ---------------------------------------------------------------------------------
 Estimated maximum stack depth 3
 ---------------------------------------------------------------------------------
 (Depth) Function   	        Calls       Base Space   Used Autos Params    Refs
 ---------------------------------------------------------------------------------
 (4) _INTERRUPT_InterruptManager                           0     0      0       0
                    _PIN_MANAGER_IOC
 ---------------------------------------------------------------------------------
 (5) _PIN_MANAGER_IOC                                      0     0      0       0
 ---------------------------------------------------------------------------------
 Estimated maximum stack depth 5
 ---------------------------------------------------------------------------------

 Call Graph Graphs:

 _main (ROOT)
   _SYSTEM_Initialize
     _CLOCK_Initialize
     _INTERRUPT_Initialize
       _INT_SetInterruptHandler
     _PIN_MANAGER_Initialize
     _WDT_Initialize

 _INTERRUPT_InterruptManager (ROOT)
   _PIN_MANAGER_IOC

 Address spaces:
Name               Size   Autos  Total    Cost      Usage
BIGRAM             7F0      0       0       0        0.0%
EEDATA             100      0       0       0        0.0%
NULL                 0      0       0       0        0.0%
CODE                 0      0       0       0        0.0%
BITCOMMON            E      0       0       1        0.0%
BITSFR0              0      0       0       1        0.0%
SFR0                 0      0       0       1        0.0%
COMMON               E      3       5       2       35.7%
BITSFR1              0      0       0       2        0.0%
SFR1                 0      0       0       2        0.0%
BITSFR2              0      0       0       3        0.0%
SFR2                 0      0       0       3        0.0%
STACK                0      0       0       3        0.0%
BITBANK0            50      0       0       4        0.0%
BITSFR3              0      0       0       4        0.0%
SFR3                 0      0       0       4        0.0%
BANK0               50      0       0       5        0.0%
BITSFR4              0      0       0       5        0.0%
SFR4                 0      0       0       5        0.0%
BITSFR5              0      0       0       6        0.0%
SFR5                 0      0       0       6        0.0%
ABS                  0      0       5       6        0.0%
BITBANK1            50      0       0       7        0.0%
BITSFR6              0      0       0       7        0.0%
SFR6                 0      0       0       7        0.0%
BANK1               50      0       0       8        0.0%
BITSFR7              0      0       0       8        0.0%
SFR7                 0      0       0       8        0.0%
BITBANK2            50      0       0       9        0.0%
BITSFR8              0      0       0       9        0.0%
SFR8                 0      0       0       9        0.0%
BANK2               50      0       0      10        0.0%
BITSFR9              0      0       0      10        0.0%
SFR9                 0      0       0      10        0.0%
BITBANK3            50      0       0      11        0.0%
BITSFR10             0      0       0      11        0.0%
SFR10                0      0       0      11        0.0%
BANK3               50      0       0      12        0.0%
BITSFR11             0      0       0      12        0.0%
SFR11                0      0       0      12        0.0%
BITBANK4            50      0       0      13        0.0%
BITSFR12             0      0       0      13        0.0%
SFR12                0      0       0      13        0.0%
BANK4               50      0       0      14        0.0%
BITSFR13             0      0       0      14        0.0%
SFR13                0      0       0      14        0.0%
BITBANK5            50      0       0      15        0.0%
BITSFR14             0      0       0      15        0.0%
SFR14                0      0       0      15        0.0%
BANK5               50      0       0      16        0.0%
BITSFR15             0      0       0      16        0.0%
SFR15                0      0       0      16        0.0%
BITBANK6            50      0       0      17        0.0%
BITSFR16             0      0       0      17        0.0%
SFR16                0      0       0      17        0.0%
BANK6               50      0       0      18        0.0%
BITSFR17             0      0       0      18        0.0%
SFR17                0      0       0      18        0.0%
BITBANK7            50      0       0      19        0.0%
BITSFR18             0      0       0      19        0.0%
SFR18                0      0       0      19        0.0%
BANK7               50      0       0      20        0.0%
BITSFR19             0      0       0      20        0.0%
SFR19                0      0       0      20        0.0%
BITBANK8            50      0       0      21        0.0%
BITSFR20             0      0       0      21        0.0%
SFR20                0      0       0      21        0.0%
BANK8               50      0       0      22        0.0%
BITSFR21             0      0       0      22        0.0%
SFR21                0      0       0      22        0.0%
BITBANK9            50      0       0      23        0.0%
BITSFR22             0      0       0      23        0.0%
SFR22                0      0       0      23        0.0%
BANK9               50      0       0      24        0.0%
BITSFR23             0      0       0      24        0.0%
SFR23                0      0       0      24        0.0%
BITBANK10           50      0       0      25        0.0%
BITSFR24             0      0       0      25        0.0%
SFR24                0      0       0      25        0.0%
BANK10              50      0       0      26        0.0%
BITSFR25             0      0       0      26        0.0%
SFR25                0      0       0      26        0.0%
BITBANK11           50      0       0      27        0.0%
BITSFR26             0      0       0      27        0.0%
SFR26                0      0       0      27        0.0%
BANK11              50      0       0      28        0.0%
BITSFR27             0      0       0      28        0.0%
SFR27                0      0       0      28        0.0%
BITBANK12           50      0       0      29        0.0%
BITSFR28             0      0       0      29        0.0%
SFR28                0      0       0      29        0.0%
BANK12              50      0       0      30        0.0%
BITSFR29             0      0       0      30        0.0%
SFR29                0      0       0      30        0.0%
BITBANK13           50      0       0      31        0.0%
BITSFR30             0      0       0      31        0.0%
SFR30                0      0       0      31        0.0%
BANK13              50      0       0      32        0.0%
BITSFR31             0      0       0      32        0.0%
SFR31                0      0       0      32        0.0%
BITBANK14           50      0       0      33        0.0%
BITSFR32             0      0       0      33        0.0%
SFR32                0      0       0      33        0.0%
BANK14              50      0       0      34        0.0%
BITSFR33             0      0       0      34        0.0%
SFR33                0      0       0      34        0.0%
BITBANK15           50      0       0      35        0.0%
BITSFR34             0      0       0      35        0.0%
SFR34                0      0       0      35        0.0%
BANK15              50      0       0      36        0.0%
BITSFR35             0      0       0      36        0.0%
SFR35                0      0       0      36        0.0%
BITBANK16           50      0       0      37        0.0%
BITSFR36             0      0       0      37        0.0%
SFR36                0      0       0      37        0.0%
BANK16              50      0       0      38        0.0%
BITSFR37             0      0       0      38        0.0%
SFR37                0      0       0      38        0.0%
BITBANK17           50      0       0      39        0.0%
BITSFR38             0      0       0      39        0.0%
SFR38                0      0       0      39        0.0%
BANK17              50      0       0      40        0.0%
BITSFR39             0      0       0      40        0.0%
SFR39                0      0       0      40        0.0%
BITBANK18           50      0       0      41        0.0%
BITSFR40             0      0       0      41        0.0%
SFR40                0      0       0      41        0.0%
BANK18              50      0       0      42        0.0%
BITSFR41             0      0       0      42        0.0%
SFR41                0      0       0      42        0.0%
BITBANK19           50      0       0      43        0.0%
BITSFR42             0      0       0      43        0.0%
SFR42                0      0       0      43        0.0%
BANK19              50      0       0      44        0.0%
BITSFR43             0      0       0      44        0.0%
SFR43                0      0       0      44        0.0%
BITBANK20           50      0       0      45        0.0%
BITSFR44             0      0       0      45        0.0%
SFR44                0      0       0      45        0.0%
BANK20              50      0       0      46        0.0%
BITSFR45             0      0       0      46        0.0%
SFR45                0      0       0      46        0.0%
BITBANK21           50      0       0      47        0.0%
BITSFR46             0      0       0      47        0.0%
SFR46                0      0       0      47        0.0%
BANK21              50      0       0      48        0.0%
BITSFR47             0      0       0      48        0.0%
SFR47                0      0       0      48        0.0%
BITBANK22           50      0       0      49        0.0%
BITSFR48             0      0       0      49        0.0%
SFR48                0      0       0      49        0.0%
BANK22              50      0       0      50        0.0%
BITSFR49             0      0       0      50        0.0%
SFR49                0      0       0      50        0.0%
BITBANK23           50      0       0      51        0.0%
BITSFR50             0      0       0      51        0.0%
SFR50                0      0       0      51        0.0%
BANK23              50      0       0      52        0.0%
BITSFR51             0      0       0      52        0.0%
SFR51                0      0       0      52        0.0%
BITBANK24           50      0       0      53        0.0%
BITSFR52             0      0       0      53        0.0%
SFR52                0      0       0      53        0.0%
BANK24              50      0       0      54        0.0%
BITSFR53             0      0       0      54        0.0%
SFR53                0      0       0      54        0.0%
BITBANK25           20      0       0      55        0.0%
BITSFR54             0      0       0      55        0.0%
SFR54                0      0       0      55        0.0%
BANK25              20      0       0      56        0.0%
BITSFR55             0      0       0      56        0.0%
SFR55                0      0       0      56        0.0%
BITSFR56             0      0       0      57        0.0%
SFR56                0      0       0      57        0.0%
DATA                 0      0       5      57        0.0%
BITSFR57             0      0       0      58        0.0%
SFR57                0      0       0      58        0.0%
BITSFR58             0      0       0      59        0.0%
SFR58                0      0       0      59        0.0%
BITSFR59             0      0       0      60        0.0%
SFR59                0      0       0      60        0.0%
BITSFR60             0      0       0      61        0.0%
SFR60                0      0       0      61        0.0%
BITSFR61             0      0       0      62        0.0%
SFR61                0      0       0      62        0.0%
BITSFR62             0      0       0      63        0.0%
SFR62                0      0       0      63        0.0%
BITSFR63             0      0       0      64        0.0%
SFR63                0      0       0      64        0.0%


Microchip Technology PIC Macro Assembler V2.41 build 20230208172133 
Symbol Table                                                                                   Tue Oct 10 15:46:11 2023

                                      l5 00A0                                       l16 0083  
                                     l35 008E                                       l52 009C  
                                     u47 0070                                      l152 005F  
                                    l172 0097                                      l810 001A  
                                    l820 0028                                      l812 0020  
                                    l900 007A                                      l830 0033  
                                    l822 002A                                      l814 0022  
                                    l806 009D                                      l902 007D  
                                    l910 0065                                      l808 008F  
                                    l840 0047                                      l832 003F  
                                    l824 002D                                      l816 0024  
                                    l904 0080                                      l912 0068  
                                    l850 0051                                      l842 0049  
                                    l834 0041                                      l826 002F  
                                    l818 0026                                      l914 0069  
                                    l906 0060                                      l844 004B  
                                    l836 0043                                      l828 0031  
                                    l916 006B                                      l908 0063  
                                    l846 004D                                      l838 0045  
                                    l918 006D                                      l848 004F  
                                    l892 0098                                      l894 0084  
                                    l896 0087                                      l898 0077  
                                    wreg 0009                                     _LATA 0018  
                                   _LATB 0019                                     _LATC 001A  
                                   _LATD 001B                                     _LATE 001C  
                                   i1l42 0012                                     _WPUA 1E8D  
                                   _WPUB 1E97                                     _WPUC 1EA1  
                                   _WPUD 1EAB                                     _WPUE 1EB5  
                                   u1_20 000B                                     u1_21 000A  
                                   u2_20 000F                                     u2_21 000E  
                                   _main 0060                                     btemp 007E  
            _INT_DefaultInterruptHandler 0000                                     start 0014  
        __end_of_INT_SetInterruptHandler 009D                                    ?_main 0070  
                                  _IOCAF 1E93                                    _IOCBF 1E9D  
                                  _IOCCF 1EA7                                    _IOCAN 1E92  
                                  _IOCEF 1EBB                                    _IOCAP 1E91  
                                  _IOCBN 1E9C                                    _IOCBP 1E9B  
                                  _IOCCN 1EA6                                    _IOCCP 1EA5  
                                  _IOCEN 1EBA                                    _IOCEP 1EB9  
                                  i1l155 00A1                                    i1l864 0006  
                                  i1l866 000B                                    i1l868 000F  
                                  _OSCEN 0211                                    _TRISA 0012  
                                  _TRISB 0013                                    _TRISC 0014  
                                  _TRISD 0015                                    _TRISE 0016  
                __end_of_PIN_MANAGER_IOC 00A2                           _WDT_Initialize 009D  
                                  wtemp0 007E                          __initialization 0016  
                           __end_of_main 0077              ?_INTERRUPT_InterruptManager 0070  
                                 ??_main 0072                   __end_of_WDT_Initialize 00A1  
                                 _ACTCON 0214                                   _ANSELA 1E8C  
                                 _ANSELB 1E96                                   _ANSELC 1EA0  
                                 _ANSELD 1EAA                                   _ANSELE 1EB4  
                                 _ODCONA 1E8E                                   _ODCONB 1E98  
                                 _ODCONC 1EA2                                   _ODCOND 1EAC  
                                 _ODCONE 1EB6                                   _INLVLA 1E90  
                                 _INLVLB 1E9A                                   _INLVLC 1EA4  
                                 _INLVLD 1EAE                                   _INLVLE 1EB8  
                                 _OSCFRQ 0213                                   _WDTCON 018C  
                      ?_CLOCK_Initialize 0070                       ??_CLOCK_Initialize 0070  
                        ?_WDT_Initialize 0070  INT_SetInterruptHandler@InterruptHandler 0070  
                       ?_PIN_MANAGER_IOC 0070                        _SYSTEM_Initialize 0077  
                __end_of__initialization 0016                       ?_SYSTEM_Initialize 0070  
                         __pcstackCOMMON 0070                      ??_SYSTEM_Initialize 0072  
              __end_of_SYSTEM_Initialize 0084                               __pnvCOMMON 0073  
                             __pmaintext 0060                               __pintentry 0004  
                                _OSCCON2 020E                                  _OSCCON3 020F  
                                _OSCSTAT 0210                                  _OSCTUNE 0212  
                                _SLRCONA 1E8F                                  _SLRCONB 1E99  
                                _SLRCONC 1EA3                                  _SLRCOND 1EAD  
                                _SLRCONE 1EB7                                  __ptext1 0077  
                                __ptext2 009D                                  __ptext3 001A  
                                __ptext4 0084                                  __ptext5 0098  
                                __ptext6 008F                                  __ptext8 00A1  
               ??_PIN_MANAGER_Initialize 0070                  _INT_SetInterruptHandler 0098  
                   end_of_initialization 0016                         ??_WDT_Initialize 0070  
           __end_of_INTERRUPT_Initialize 008F                ??_INT_SetInterruptHandler 0072  
                    start_initialization 0016                                ___latbits 0003  
                 _PIN_MANAGER_Initialize 001A             ??_INTERRUPT_InterruptManager 0070  
                   _INTERRUPT_Initialize 0084                         _CLOCK_Initialize 008F  
                               _LATAbits 0018                                 _PIE0bits 0096  
                               _PIR0bits 008C                        ??_PIN_MANAGER_IOC 0070  
                  ?_INTERRUPT_Initialize 0070                                 int$flags 007E  
     __end_of_INTERRUPT_InterruptManager 0014               _INTERRUPT_InterruptManager 0004  
                             _INTCONbits 000B                     _INT_InterruptHandler 0073  
                 ??_INTERRUPT_Initialize 0072                                 intlevel1 0000  
                ?_PIN_MANAGER_Initialize 0070                 ?_INT_SetInterruptHandler 0070  
               __end_of_CLOCK_Initialize 0098                               _WDTCONbits 018C  
         __end_of_PIN_MANAGER_Initialize 0060                          _PIN_MANAGER_IOC 00A1  
